     1 00000000                                 [FORMAT "WCOFF"]
     2 00000000                                 [INSTRSET "i486p"]
     3 00000000                                 [OPTIMIZE 1]
     4 00000000                                 [OPTION 1]
     5 00000000                                 [BITS 32]
     6 00000000                                 	EXTERN	_yc
     7 00000000                                 	EXTERN	_xc
     8 00000000                                 	EXTERN	_y
     9 00000000                                 	EXTERN	_x
    10 00000000                                 	EXTERN	_mm_total
    11 00000000                                 	EXTERN	_mm_check
    12 00000000                                 	EXTERN	_mm_sbrk
    13 00000000                                 	EXTERN	_sprintf
    14 00000000                                 	EXTERN	_mm_malloc
    15 00000000                                 	EXTERN	_file_readfat
    16 00000000                                 	EXTERN	_file_loadfile
    17 00000000                                 	EXTERN	_mm_free
    18 00000000                                 	EXTERN	_draw_rect
    19 00000000                                 	EXTERN	_sheet_refresh
    20 00000000                                 	EXTERN	_hankaku
    21 00000000                                 	EXTERN	_draw_char
    22 00000000                                 	EXTERN	_set_segmdesc
    23 00000000                                 	EXTERN	_task_now
    24 00000000                                 	EXTERN	_start_app
    25 00000000                                 	EXTERN	_sheet_free
    26 00000000                                 	EXTERN	_sheet_alloc
    27 00000000                                 	EXTERN	_sheet_setbuf
    28 00000000                                 	EXTERN	_make_window
    29 00000000                                 	EXTERN	_sheet_updown
    30 00000000                                 	EXTERN	_sheet_slide
    31 00000000                                 	EXTERN	_start_timing
    32 00000000                                 	EXTERN	_fifo_status
    33 00000000                                 	EXTERN	_fifo_get
    34 00000000                                 	EXTERN	_key_to_char
    35 00000000                                 	EXTERN	_show_cursor
    36 00000000                                 	EXTERN	_task_sleep
    37 00000000                                 [FILE "console.c"]
    38                                          [SECTION .data]
    39 00000000                                 	ALIGNB	4
    40 00000000                                 _x:
    41 00000000 FFFFFFFF                        	DD	-1
    42 00000004                                 	ALIGNB	4
    43 00000004                                 _y:
    44 00000004 FFFFFFFF                        	DD	-1
    45 00000008                                 	ALIGNB	4
    46 00000008                                 _xc:
    47 00000008 FFFFFFFF                        	DD	-1
    48 0000000C                                 	ALIGNB	4
    49 0000000C                                 _yc:
    50 0000000C FFFFFFFF                        	DD	-1
    51 00000010                                 	ALIGNB	4
    52 00000010                                 _show_cursor:
    53 00000010 00000001                        	DD	1
    54 00000014                                 LC0:
    55 00000014 55 73 61 67 65 3A 20 63 2F 63   	DB	"Usage: c/clear/cls",0x00
       0000001E 6C 65 61 72 2F 63 6C 73 00 
    56                                          [SECTION .text]
    57 00000000                                 _cmd_cls:
    58 00000000 55                              	PUSH	EBP
    59 00000001 89 E5                           	MOV	EBP,ESP
    60 00000003 53                              	PUSH	EBX
    61 00000004 83 3D [00000254] 01             	CMP	DWORD [_argc],1
    62 0000000B 74 0F                           	JE	L2
    63 0000000D 68 [00000014]                   	PUSH	LC0
    64 00000012 E8 00000650                     	CALL	_print_error
    65 00000017                                 L1:
    66 00000017 8B 5D FC                        	MOV	EBX,DWORD [-4+EBP]
    67 0000001A C9                              	LEAVE
    68 0000001B C3                              	RET
    69 0000001C                                 L2:
    70 0000001C 31 DB                           	XOR	EBX,EBX
    71 0000001E 3B 1D [000001C4]                	CMP	EBX,DWORD [_cols]
    72 00000024 7C 2A                           	JL	L7
    73 00000026                                 L9:
    74 00000026 C7 05 [0000000C] FFFFFFFF       	MOV	DWORD [_yc],-1
    75 00000030 C7 05 [00000008] FFFFFFFF       	MOV	DWORD [_xc],-1
    76 0000003A C7 05 [00000004] FFFFFFFF       	MOV	DWORD [_y],-1
    77 00000044 C7 05 [00000000] FFFFFFFF       	MOV	DWORD [_x],-1
    78 0000004E EB C7                           	JMP	L1
    79 00000050                                 L7:
    80 00000050 6A 00                           	PUSH	0
    81 00000052 43                              	INC	EBX
    82 00000053 E8 00000345                     	CALL	_new_line
    83 00000058 3B 1D [000001C4]                	CMP	EBX,DWORD [_cols]
    84 0000005E 58                              	POP	EAX
    85 0000005F 7C EF                           	JL	L7
    86 00000061 EB C3                           	JMP	L9
    87                                          [SECTION .data]
    88 00000027                                 LC1:
    89 00000027 55 73 61 67 65 3A 20 6D 2F 6D   	DB	"Usage: m/mem/memory",0x00
       00000031 65 6D 2F 6D 65 6D 6F 72 79 00 
    90 0000003B                                 LC2:
    91 0000003B 6D 65 6D 20 20 3A 20 20 25 34   	DB	"mem  :  %4d / %4d MB       usage:  %2d.%02d %%",0x00
       00000045 64 20 2F 20 25 34 64 20 4D 42 
       0000004F 20 20 20 20 20 20 20 75 73 61 
       00000059 67 65 3A 20 20 25 32 64 2E 25 
       00000063 30 32 64 20 25 25 00 
    92 0000006A                                 LC3:
    93 0000006A 73 62 72 6B 20 3A 20 20 30 78   	DB	"sbrk :  0x%08x",0x00
       00000074 25 30 38 78 00 
    94 00000079                                 LC4:
    95 00000079 20 2D 75 20 20 3A 20 20 25 34   	DB	" -u  :  %4d MB              -f   :  %4d MB",0x00
       00000083 64 20 4D 42 20 20 20 20 20 20 
       0000008D 20 20 20 20 20 20 20 20 2D 66 
       00000097 20 20 20 3A 20 20 25 34 64 20 
       000000A1 4D 42 00 
    96                                          [SECTION .text]
    97 00000063                                 _cmd_mem:
    98 00000063 55                              	PUSH	EBP
    99 00000064 89 E5                           	MOV	EBP,ESP
   100 00000066 57                              	PUSH	EDI
   101 00000067 56                              	PUSH	ESI
   102 00000068 53                              	PUSH	EBX
   103 00000069 83 EC 48                        	SUB	ESP,72
   104 0000006C E8 [00000000]                   	CALL	_mm_total
   105 00000071 89 C3                           	MOV	EBX,EAX
   106 00000073 E8 [00000000]                   	CALL	_mm_total
   107 00000078 C1 EB 14                        	SHR	EBX,20
   108 0000007B 89 C6                           	MOV	ESI,EAX
   109 0000007D C1 EE 14                        	SHR	ESI,20
   110 00000080 E8 [00000000]                   	CALL	_mm_check
   111 00000085 C1 E8 14                        	SHR	EAX,20
   112 00000088 29 C6                           	SUB	ESI,EAX
   113 0000008A E8 [00000000]                   	CALL	_mm_sbrk
   114 0000008F 89 DA                           	MOV	EDX,EBX
   115 00000091 D1 FA                           	SAR	EDX,1
   116 00000093 89 45 B0                        	MOV	DWORD [-80+EBP],EAX
   117 00000096 89 F0                           	MOV	EAX,ESI
   118 00000098 69 C0 00002710                  	IMUL	EAX,EAX,10000
   119 0000009E 8D 14 02                        	LEA	EDX,DWORD [EDX+EAX*1]
   120 000000A1 89 D0                           	MOV	EAX,EDX
   121 000000A3 99                              	CDQ
   122 000000A4 F7 FB                           	IDIV	EBX
   123 000000A6 83 3D [00000254] 01             	CMP	DWORD [_argc],1
   124 000000AD 89 45 AC                        	MOV	DWORD [-84+EBP],EAX
   125 000000B0 74 12                           	JE	L11
   126 000000B2 68 [00000027]                   	PUSH	LC1
   127 000000B7 E8 000005AB                     	CALL	_print_error
   128 000000BC                                 L10:
   129 000000BC 8D 65 F4                        	LEA	ESP,DWORD [-12+EBP]
   130 000000BF 5B                              	POP	EBX
   131 000000C0 5E                              	POP	ESI
   132 000000C1 5F                              	POP	EDI
   133 000000C2 5D                              	POP	EBP
   134 000000C3 C3                              	RET
   135 000000C4                                 L11:
   136 000000C4 8B 45 AC                        	MOV	EAX,DWORD [-84+EBP]
   137 000000C7 BA 00000064                     	MOV	EDX,100
   138 000000CC 89 D7                           	MOV	EDI,EDX
   139 000000CE 99                              	CDQ
   140 000000CF F7 FF                           	IDIV	EDI
   141 000000D1 52                              	PUSH	EDX
   142 000000D2 8D 7D B4                        	LEA	EDI,DWORD [-76+EBP]
   143 000000D5 50                              	PUSH	EAX
   144 000000D6 53                              	PUSH	EBX
   145 000000D7 56                              	PUSH	ESI
   146 000000D8 68 [0000003B]                   	PUSH	LC2
   147 000000DD 57                              	PUSH	EDI
   148 000000DE E8 [00000000]                   	CALL	_sprintf
   149 000000E3 57                              	PUSH	EDI
   150 000000E4 E8 00000550                     	CALL	_print_string
   151 000000E9 FF 75 B0                        	PUSH	DWORD [-80+EBP]
   152 000000EC 68 [0000006A]                   	PUSH	LC3
   153 000000F1 57                              	PUSH	EDI
   154 000000F2 E8 [00000000]                   	CALL	_sprintf
   155 000000F7 83 C4 28                        	ADD	ESP,40
   156 000000FA 57                              	PUSH	EDI
   157 000000FB E8 00000539                     	CALL	_print_string
   158 00000100 E8 [00000000]                   	CALL	_mm_check
   159 00000105 89 C6                           	MOV	ESI,EAX
   160 00000107 E8 [00000000]                   	CALL	_mm_total
   161 0000010C C1 EE 14                        	SHR	ESI,20
   162 0000010F 89 C3                           	MOV	EBX,EAX
   163 00000111 E8 [00000000]                   	CALL	_mm_sbrk
   164 00000116 29 C3                           	SUB	EBX,EAX
   165 00000118 C1 EB 14                        	SHR	EBX,20
   166 0000011B 29 DE                           	SUB	ESI,EBX
   167 0000011D 56                              	PUSH	ESI
   168 0000011E E8 [00000000]                   	CALL	_mm_total
   169 00000123 2B 45 B0                        	SUB	EAX,DWORD [-80+EBP]
   170 00000126 C1 E8 14                        	SHR	EAX,20
   171 00000129 50                              	PUSH	EAX
   172 0000012A 68 [00000079]                   	PUSH	LC4
   173 0000012F 57                              	PUSH	EDI
   174 00000130 E8 [00000000]                   	CALL	_sprintf
   175 00000135 57                              	PUSH	EDI
   176 00000136 E8 000004FE                     	CALL	_print_string
   177 0000013B E9 FFFFFF7C                     	JMP	L10
   178                                          [SECTION .data]
   179 000000A4                                 LC5:
   180 000000A4 55 73 61 67 65 3A 20 6C 73 2F   	DB	"Usage: ls/dir",0x00
       000000AE 64 69 72 00 
   181 000000B2                                 LC6:
   182 000000B2 66 69 6C 65 6E 61 6D 65 2E 65   	DB	"filename.ext  %6d B",0x00
       000000BC 78 74 20 20 25 36 64 20 42 00 
   183 000000C6                                 LC7:
   184 000000C6 66 69 6C 65 6E 61 6D 65 2E 65   	DB	"filename.ext  %6d KB",0x00
       000000D0 78 74 20 20 25 36 64 20 4B 42 
       000000DA 00 
   185                                          [SECTION .text]
   186 00000140                                 _cmd_ls:
   187 00000140 55                              	PUSH	EBP
   188 00000141 89 E5                           	MOV	EBP,ESP
   189 00000143 56                              	PUSH	ESI
   190 00000144 53                              	PUSH	EBX
   191 00000145 83 EC 20                        	SUB	ESP,32
   192 00000148 83 3D [00000254] 01             	CMP	DWORD [_argc],1
   193 0000014F 74 11                           	JE	L13
   194 00000151 68 [000000A4]                   	PUSH	LC5
   195 00000156 E8 0000050C                     	CALL	_print_error
   196 0000015B                                 L12:
   197 0000015B 8D 65 F8                        	LEA	ESP,DWORD [-8+EBP]
   198 0000015E 5B                              	POP	EBX
   199 0000015F 5E                              	POP	ESI
   200 00000160 5D                              	POP	EBP
   201 00000161 C3                              	RET
   202 00000162                                 L13:
   203 00000162 31 DB                           	XOR	EBX,EBX
   204 00000164 BE 000000DF                     	MOV	ESI,223
   205 00000169                                 L28:
   206 00000169 8A 83 00102600                  	MOV	AL,BYTE [1058304+EBX]
   207 0000016F 84 C0                           	TEST	AL,AL
   208 00000171 74 6F                           	JE	L16
   209 00000173 3C E5                           	CMP	AL,-27
   210 00000175 74 6B                           	JE	L16
   211 00000177 F6 83 0010260B 18               	TEST	BYTE [1058315+EBX],24
   212 0000017E 75 62                           	JNE	L16
   213 00000180 8B 83 0010261C                  	MOV	EAX,DWORD [1058332+EBX]
   214 00000186 8D 90 00000200                  	LEA	EDX,DWORD [512+EAX]
   215 0000018C C1 EA 0A                        	SHR	EDX,10
   216 0000018F 3D 000003FF                     	CMP	EAX,1023
   217 00000194 77 5B                           	JA	L21
   218 00000196 50                              	PUSH	EAX
   219 00000197 68 [000000B2]                   	PUSH	LC6
   220 0000019C                                 L32:
   221 0000019C 8D 45 D8                        	LEA	EAX,DWORD [-40+EBP]
   222 0000019F 50                              	PUSH	EAX
   223 000001A0 E8 [00000000]                   	CALL	_sprintf
   224 000001A5 8D 93 00102600                  	LEA	EDX,DWORD [1058304+EBX]
   225 000001AB 83 C4 0C                        	ADD	ESP,12
   226 000001AE 31 C9                           	XOR	ECX,ECX
   227 000001B0                                 L27:
   228 000001B0 8A 02                           	MOV	AL,BYTE [EDX]
   229 000001B2 42                              	INC	EDX
   230 000001B3 88 44 0D D8                     	MOV	BYTE [-40+EBP+ECX*1],AL
   231 000001B7 41                              	INC	ECX
   232 000001B8 83 F9 07                        	CMP	ECX,7
   233 000001BB 7E F3                           	JLE	L27
   234 000001BD 8A 83 00102608                  	MOV	AL,BYTE [1058312+EBX]
   235 000001C3 88 45 E1                        	MOV	BYTE [-31+EBP],AL
   236 000001C6 8A 83 00102609                  	MOV	AL,BYTE [1058313+EBX]
   237 000001CC 88 45 E2                        	MOV	BYTE [-30+EBP],AL
   238 000001CF 8A 83 0010260A                  	MOV	AL,BYTE [1058314+EBX]
   239 000001D5 88 45 E3                        	MOV	BYTE [-29+EBP],AL
   240 000001D8 8D 45 D8                        	LEA	EAX,DWORD [-40+EBP]
   241 000001DB 50                              	PUSH	EAX
   242 000001DC E8 00000458                     	CALL	_print_string
   243 000001E1 5A                              	POP	EDX
   244 000001E2                                 L16:
   245 000001E2 83 C3 20                        	ADD	EBX,32
   246 000001E5 4E                              	DEC	ESI
   247 000001E6 0F 89 FFFFFF7D                  	JNS	L28
   248 000001EC E9 FFFFFF6A                     	JMP	L12
   249 000001F1                                 L21:
   250 000001F1 52                              	PUSH	EDX
   251 000001F2 68 [000000C6]                   	PUSH	LC7
   252 000001F7 EB A3                           	JMP	L32
   253                                          [SECTION .data]
   254 000000DB                                 LC8:
   255 000000DB 55 73 61 67 65 3A 20 63 61 74   	DB	"Usage: cat/type [filename]",0x00
       000000E5 2F 74 79 70 65 20 5B 66 69 6C 
       000000EF 65 6E 61 6D 65 5D 00 
   256 000000F6                                 LC9:
   257 000000F6 46 69 6C 65 20 4E 6F 74 20 46   	DB	"File Not Found",0x00
       00000100 6F 75 6E 64 00 
   258                                          [SECTION .text]
   259 000001F9                                 _cmd_type:
   260 000001F9 55                              	PUSH	EBP
   261 000001FA 31 C0                           	XOR	EAX,EAX
   262 000001FC 89 E5                           	MOV	EBP,ESP
   263 000001FE B9 0000000D                     	MOV	ECX,13
   264 00000203 57                              	PUSH	EDI
   265 00000204 56                              	PUSH	ESI
   266 00000205 8D 7D E4                        	LEA	EDI,DWORD [-28+EBP]
   267 00000208 FC                              	CLD
   268 00000209 53                              	PUSH	EBX
   269 0000020A 83 EC 18                        	SUB	ESP,24
   270 0000020D F3                              	REP
   271 0000020E AA                              	STOSB
   272 0000020F 83 3D [00000254] 02             	CMP	DWORD [_argc],2
   273 00000216 74 12                           	JE	L34
   274 00000218 68 [000000DB]                   	PUSH	LC8
   275 0000021D                                 L78:
   276 0000021D E8 00000445                     	CALL	_print_error
   277 00000222                                 L33:
   278 00000222 8D 65 F4                        	LEA	ESP,DWORD [-12+EBP]
   279 00000225 5B                              	POP	EBX
   280 00000226 5E                              	POP	ESI
   281 00000227 5F                              	POP	EDI
   282 00000228 5D                              	POP	EBP
   283 00000229 C3                              	RET
   284 0000022A                                 L34:
   285 0000022A FF 35 [000001D4]                	PUSH	DWORD [_arg_buf+4]
   286 00000230 E8 000004E2                     	CALL	_str_uppercase
   287 00000235 5B                              	POP	EBX
   288 00000236 C7 45 DC 00000000               	MOV	DWORD [-36+EBP],0
   289 0000023D                                 L70:
   290 0000023D 8B 55 DC                        	MOV	EDX,DWORD [-36+EBP]
   291 00000240 C1 E2 05                        	SAL	EDX,5
   292 00000243 8A 82 00102600                  	MOV	AL,BYTE [1058304+EDX]
   293 00000249 84 C0                           	TEST	AL,AL
   294 0000024B 0F 84 00000080                  	JE	L37
   295 00000251 3C E5                           	CMP	AL,-27
   296 00000253 74 7C                           	JE	L37
   297 00000255 F6 82 0010260B 18               	TEST	BYTE [1058315+EDX],24
   298 0000025C 75 73                           	JNE	L37
   299 0000025E 31 DB                           	XOR	EBX,EBX
   300 00000260                                 L46:
   301 00000260 C6 44 1D E4 00                  	MOV	BYTE [-28+EBP+EBX*1],0
   302 00000265 43                              	INC	EBX
   303 00000266 83 FB 0C                        	CMP	EBX,12
   304 00000269 7E F5                           	JLE	L46
   305 0000026B 31 DB                           	XOR	EBX,EBX
   306 0000026D                                 L53:
   307 0000026D 8B 7D DC                        	MOV	EDI,DWORD [-36+EBP]
   308 00000270 C1 E7 05                        	SAL	EDI,5
   309 00000273 8A 84 1F 00102600               	MOV	AL,BYTE [1058304+EDI+EBX*1]
   310 0000027A 3C 20                           	CMP	AL,32
   311 0000027C 74 0A                           	JE	L48
   312 0000027E 88 44 1D E4                     	MOV	BYTE [-28+EBP+EBX*1],AL
   313 00000282 43                              	INC	EBX
   314 00000283 83 FB 07                        	CMP	EBX,7
   315 00000286 7E E5                           	JLE	L53
   316 00000288                                 L48:
   317 00000288 80 BF 00102608 20               	CMP	BYTE [1058312+EDI],32
   318 0000028F 74 0F                           	JE	L54
   319 00000291 C6 44 1D E4 2E                  	MOV	BYTE [-28+EBP+EBX*1],46
   320 00000296 8A 87 00102608                  	MOV	AL,BYTE [1058312+EDI]
   321 0000029C 88 44 1D E5                     	MOV	BYTE [-27+EBP+EBX*1],AL
   322 000002A0                                 L54:
   323 000002A0 8A 87 00102609                  	MOV	AL,BYTE [1058313+EDI]
   324 000002A6 3C 20                           	CMP	AL,32
   325 000002A8 74 04                           	JE	L55
   326 000002AA 88 44 1D E6                     	MOV	BYTE [-26+EBP+EBX*1],AL
   327 000002AE                                 L55:
   328 000002AE 8A 87 0010260A                  	MOV	AL,BYTE [1058314+EDI]
   329 000002B4 3C 20                           	CMP	AL,32
   330 000002B6 74 04                           	JE	L56
   331 000002B8 88 44 1D E7                     	MOV	BYTE [-25+EBP+EBX*1],AL
   332 000002BC                                 L56:
   333 000002BC 8D 45 E4                        	LEA	EAX,DWORD [-28+EBP]
   334 000002BF 50                              	PUSH	EAX
   335 000002C0 FF 35 [000001D4]                	PUSH	DWORD [_arg_buf+4]
   336 000002C6 E8 0000041F                     	CALL	_str_cmp
   337 000002CB 5A                              	POP	EDX
   338 000002CC 59                              	POP	ECX
   339 000002CD 84 C0                           	TEST	AL,AL
   340 000002CF 75 1A                           	JNE	L79
   341 000002D1                                 L37:
   342 000002D1 FF 45 DC                        	INC	DWORD [-36+EBP]
   343 000002D4 81 7D DC 000000DF               	CMP	DWORD [-36+EBP],223
   344 000002DB 0F 8E FFFFFF5C                  	JLE	L70
   345 000002E1 68 [000000F6]                   	PUSH	LC9
   346 000002E6 E9 FFFFFF32                     	JMP	L78
   347 000002EB                                 L79:
   348 000002EB 8B 9F 0010261C                  	MOV	EBX,DWORD [1058332+EDI]
   349 000002F1 68 00002D00                     	PUSH	11520
   350 000002F6 E8 [00000000]                   	CALL	_mm_malloc
   351 000002FB 68 00100200                     	PUSH	1049088
   352 00000300 50                              	PUSH	EAX
   353 00000301 89 45 E0                        	MOV	DWORD [-32+EBP],EAX
   354 00000304 E8 [00000000]                   	CALL	_file_readfat
   355 00000309 53                              	PUSH	EBX
   356 0000030A E8 [00000000]                   	CALL	_mm_malloc
   357 0000030F 68 00103E00                     	PUSH	1064448
   358 00000314 FF 75 E0                        	PUSH	DWORD [-32+EBP]
   359 00000317 50                              	PUSH	EAX
   360 00000318 89 C6                           	MOV	ESI,EAX
   361 0000031A 53                              	PUSH	EBX
   362 0000031B 0F B7 87 0010261A               	MOVZX	EAX,WORD [1058330+EDI]
   363 00000322 50                              	PUSH	EAX
   364 00000323 E8 [00000000]                   	CALL	_file_loadfile
   365 00000328 83 C4 24                        	ADD	ESP,36
   366 0000032B 6A 00                           	PUSH	0
   367 0000032D E8 0000006B                     	CALL	_new_line
   368 00000332 5F                              	POP	EDI
   369 00000333 C7 45 DC 00000000               	MOV	DWORD [-36+EBP],0
   370 0000033A 39 5D DC                        	CMP	DWORD [-36+EBP],EBX
   371 0000033D 7D 2B                           	JGE	L77
   372 0000033F                                 L69:
   373 0000033F 8B 55 DC                        	MOV	EDX,DWORD [-36+EBP]
   374 00000342 8A 04 32                        	MOV	AL,BYTE [EDX+ESI*1]
   375 00000345 3C 0D                           	CMP	AL,13
   376 00000347 74 19                           	JE	L60
   377 00000349 3C 0A                           	CMP	AL,10
   378 0000034B 74 46                           	JE	L80
   379 0000034D 3C 09                           	CMP	AL,9
   380 0000034F 74 2C                           	JE	L65
   381 00000351 8B 55 DC                        	MOV	EDX,DWORD [-36+EBP]
   382 00000354 6A 00                           	PUSH	0
   383 00000356 0F BE 04 32                     	MOVSX	EAX,BYTE [EDX+ESI*1]
   384 0000035A 50                              	PUSH	EAX
   385 0000035B E8 00000198                     	CALL	_new_char
   386 00000360 59                              	POP	ECX
   387 00000361 5F                              	POP	EDI
   388 00000362                                 L60:
   389 00000362 FF 45 DC                        	INC	DWORD [-36+EBP]
   390 00000365 39 5D DC                        	CMP	DWORD [-36+EBP],EBX
   391 00000368 7C D5                           	JL	L69
   392 0000036A                                 L77:
   393 0000036A FF 75 E0                        	PUSH	DWORD [-32+EBP]
   394 0000036D E8 [00000000]                   	CALL	_mm_free
   395 00000372 56                              	PUSH	ESI
   396 00000373 E8 [00000000]                   	CALL	_mm_free
   397 00000378 E9 FFFFFEA5                     	JMP	L33
   398 0000037D                                 L65:
   399 0000037D 6A 00                           	PUSH	0
   400 0000037F 6A 20                           	PUSH	32
   401 00000381 E8 00000172                     	CALL	_new_char
   402 00000386 F6 05 [00000000] 03             	TEST	BYTE [_x],3
   403 0000038D 58                              	POP	EAX
   404 0000038E 5A                              	POP	EDX
   405 0000038F 75 EC                           	JNE	L65
   406 00000391 EB CF                           	JMP	L60
   407 00000393                                 L80:
   408 00000393 6A 00                           	PUSH	0
   409 00000395 E8 00000003                     	CALL	_new_line
   410 0000039A 59                              	POP	ECX
   411 0000039B EB C5                           	JMP	L60
   412                                          [SECTION .data]
   413 00000105                                 LC10:
   414 00000105 43 00                           	DB	"C",0x00
   415 00000107                                 LC11:
   416 00000107 43 4C 53 00                     	DB	"CLS",0x00
   417 0000010B                                 LC12:
   418 0000010B 43 4C 45 41 52 00               	DB	"CLEAR",0x00
   419 00000111                                 LC13:
   420 00000111 4D 00                           	DB	"M",0x00
   421 00000113                                 LC14:
   422 00000113 4D 45 4D 00                     	DB	"MEM",0x00
   423 00000117                                 LC15:
   424 00000117 4D 45 4D 4F 52 59 00            	DB	"MEMORY",0x00
   425 0000011E                                 LC16:
   426 0000011E 4C 53 00                        	DB	"LS",0x00
   427 00000121                                 LC17:
   428 00000121 44 49 52 00                     	DB	"DIR",0x00
   429 00000125                                 LC18:
   430 00000125 54 59 50 45 00                  	DB	"TYPE",0x00
   431 0000012A                                 LC19:
   432 0000012A 43 41 54 00                     	DB	"CAT",0x00
   433 0000012E                                 _buildin_cmd:
   434 0000012E [00000105]                      	DD	LC10
   435 00000132 [00000107]                      	DD	LC11
   436 00000136 [0000010B]                      	DD	LC12
   437 0000013A [00000111]                      	DD	LC13
   438 0000013E [00000113]                      	DD	LC14
   439 00000142 [00000117]                      	DD	LC15
   440 00000146 [0000011E]                      	DD	LC16
   441 0000014A [00000121]                      	DD	LC17
   442 0000014E [00000125]                      	DD	LC18
   443 00000152 [0000012A]                      	DD	LC19
   444 00000156                                 _buildin_cmd_addr:
   445 00000156 [00000000]                      	DD	_cmd_cls
   446 0000015A [00000000]                      	DD	_cmd_cls
   447 0000015E [00000000]                      	DD	_cmd_cls
   448 00000162 [00000063]                      	DD	_cmd_mem
   449 00000166 [00000063]                      	DD	_cmd_mem
   450 0000016A [00000063]                      	DD	_cmd_mem
   451 0000016E [00000140]                      	DD	_cmd_ls
   452 00000172 [00000140]                      	DD	_cmd_ls
   453 00000176 [000001F9]                      	DD	_cmd_type
   454 0000017A [000001F9]                      	DD	_cmd_type
   455                                          [SECTION .text]
   456 0000039D                                 _new_line:
   457 0000039D 55                              	PUSH	EBP
   458 0000039E A1 [00000004]                   	MOV	EAX,DWORD [_y]
   459 000003A3 89 E5                           	MOV	EBP,ESP
   460 000003A5 40                              	INC	EAX
   461 000003A6 53                              	PUSH	EBX
   462 000003A7 FF 05 [0000000C]                	INC	DWORD [_yc]
   463 000003AD 8A 5D 08                        	MOV	BL,BYTE [8+EBP]
   464 000003B0 A3 [00000004]                   	MOV	DWORD [_y],EAX
   465 000003B5 C7 05 [00000000] 00000000       	MOV	DWORD [_x],0
   466 000003BF C7 05 [00000008] 00000000       	MOV	DWORD [_xc],0
   467 000003C9 3B 05 [000001C8]                	CMP	EAX,DWORD [_rows]
   468 000003CF 0F 84 0000010A                  	JE	L84
   469 000003D5                                 L82:
   470 000003D5 8B 15 [00000004]                	MOV	EDX,DWORD [_y]
   471 000003DB 8B 0D [000001BC]                	MOV	ECX,DWORD [_width]
   472 000003E1 C1 E2 04                        	SAL	EDX,4
   473 000003E4 8D 42 25                        	LEA	EAX,DWORD [37+EDX]
   474 000003E7 83 C2 16                        	ADD	EDX,22
   475 000003EA 50                              	PUSH	EAX
   476 000003EB 8D 41 FC                        	LEA	EAX,DWORD [-4+ECX]
   477 000003EE 50                              	PUSH	EAX
   478 000003EF 52                              	PUSH	EDX
   479 000003F0 6A 03                           	PUSH	3
   480 000003F2 6A 00                           	PUSH	0
   481 000003F4 51                              	PUSH	ECX
   482 000003F5 FF 35 [00000330]                	PUSH	DWORD [_buf_window]
   483 000003FB E8 [00000000]                   	CALL	_draw_rect
   484 00000400 8B 15 [00000004]                	MOV	EDX,DWORD [_y]
   485 00000406 C1 E2 04                        	SAL	EDX,4
   486 00000409 6A 00                           	PUSH	0
   487 0000040B 8D 42 26                        	LEA	EAX,DWORD [38+EDX]
   488 0000040E 83 C2 16                        	ADD	EDX,22
   489 00000411 50                              	PUSH	EAX
   490 00000412 A1 [000001BC]                   	MOV	EAX,DWORD [_width]
   491 00000417 83 E8 03                        	SUB	EAX,3
   492 0000041A 50                              	PUSH	EAX
   493 0000041B 52                              	PUSH	EDX
   494 0000041C 6A 03                           	PUSH	3
   495 0000041E FF 35 [0000032C]                	PUSH	DWORD [_sht_window]
   496 00000424 E8 [00000000]                   	CALL	_sheet_refresh
   497 00000429 83 C4 34                        	ADD	ESP,52
   498 0000042C 84 DB                           	TEST	BL,BL
   499 0000042E 75 05                           	JNE	L85
   500 00000430                                 L81:
   501 00000430 8B 5D FC                        	MOV	EBX,DWORD [-4+EBP]
   502 00000433 C9                              	LEAVE
   503 00000434 C3                              	RET
   504 00000435                                 L85:
   505 00000435 8B 0D [00000004]                	MOV	ECX,DWORD [_y]
   506 0000043B FF 05 [00000008]                	INC	DWORD [_xc]
   507 00000441 C1 E1 04                        	SAL	ECX,4
   508 00000444 8D 41 25                        	LEA	EAX,DWORD [37+ECX]
   509 00000447 83 C1 16                        	ADD	ECX,22
   510 0000044A 50                              	PUSH	EAX
   511 0000044B A1 [00000000]                   	MOV	EAX,DWORD [_x]
   512 00000450 C1 E0 03                        	SAL	EAX,3
   513 00000453 8D 50 0A                        	LEA	EDX,DWORD [10+EAX]
   514 00000456 83 C0 03                        	ADD	EAX,3
   515 00000459 52                              	PUSH	EDX
   516 0000045A 51                              	PUSH	ECX
   517 0000045B 50                              	PUSH	EAX
   518 0000045C 6A 00                           	PUSH	0
   519 0000045E FF 35 [000001BC]                	PUSH	DWORD [_width]
   520 00000464 FF 35 [00000330]                	PUSH	DWORD [_buf_window]
   521 0000046A E8 [00000000]                   	CALL	_draw_rect
   522 0000046F A1 [00000004]                   	MOV	EAX,DWORD [_y]
   523 00000474 C1 E0 04                        	SAL	EAX,4
   524 00000477 68 [000003E0]                   	PUSH	_hankaku+992
   525 0000047C 83 C0 16                        	ADD	EAX,22
   526 0000047F 50                              	PUSH	EAX
   527 00000480 A1 [00000000]                   	MOV	EAX,DWORD [_x]
   528 00000485 8D 04 C5 00000003               	LEA	EAX,DWORD [3+EAX*8]
   529 0000048C 50                              	PUSH	EAX
   530 0000048D 6A 02                           	PUSH	2
   531 0000048F FF 35 [000001BC]                	PUSH	DWORD [_width]
   532 00000495 FF 35 [00000330]                	PUSH	DWORD [_buf_window]
   533 0000049B E8 [00000000]                   	CALL	_draw_char
   534 000004A0 8B 0D [00000004]                	MOV	ECX,DWORD [_y]
   535 000004A6 C1 E1 04                        	SAL	ECX,4
   536 000004A9 83 C4 34                        	ADD	ESP,52
   537 000004AC 8D 41 26                        	LEA	EAX,DWORD [38+ECX]
   538 000004AF 6A 00                           	PUSH	0
   539 000004B1 50                              	PUSH	EAX
   540 000004B2 83 C1 16                        	ADD	ECX,22
   541 000004B5 A1 [00000000]                   	MOV	EAX,DWORD [_x]
   542 000004BA C1 E0 03                        	SAL	EAX,3
   543 000004BD 8D 50 0B                        	LEA	EDX,DWORD [11+EAX]
   544 000004C0 83 C0 03                        	ADD	EAX,3
   545 000004C3 52                              	PUSH	EDX
   546 000004C4 51                              	PUSH	ECX
   547 000004C5 50                              	PUSH	EAX
   548 000004C6 FF 35 [0000032C]                	PUSH	DWORD [_sht_window]
   549 000004CC E8 [00000000]                   	CALL	_sheet_refresh
   550 000004D1 83 C4 18                        	ADD	ESP,24
   551 000004D4 FF 05 [00000000]                	INC	DWORD [_x]
   552 000004DA E9 FFFFFF51                     	JMP	L81
   553 000004DF                                 L84:
   554 000004DF C7 05 [00000004] 00000000       	MOV	DWORD [_y],0
   555 000004E9 C7 05 [0000000C] 00000000       	MOV	DWORD [_yc],0
   556 000004F3 E9 FFFFFEDD                     	JMP	L82
   557 000004F8                                 _new_char:
   558 000004F8 55                              	PUSH	EBP
   559 000004F9 89 E5                           	MOV	EBP,ESP
   560 000004FB 56                              	PUSH	ESI
   561 000004FC 53                              	PUSH	EBX
   562 000004FD 8B 0D [0000000C]                	MOV	ECX,DWORD [_yc]
   563 00000503 8B 75 0C                        	MOV	ESI,DWORD [12+EBP]
   564 00000506 C1 E1 04                        	SAL	ECX,4
   565 00000509 8A 5D 08                        	MOV	BL,BYTE [8+EBP]
   566 0000050C 8D 41 25                        	LEA	EAX,DWORD [37+ECX]
   567 0000050F 83 C1 16                        	ADD	ECX,22
   568 00000512 50                              	PUSH	EAX
   569 00000513 A1 [00000008]                   	MOV	EAX,DWORD [_xc]
   570 00000518 C1 E0 03                        	SAL	EAX,3
   571 0000051B 8D 50 0A                        	LEA	EDX,DWORD [10+EAX]
   572 0000051E 83 C0 03                        	ADD	EAX,3
   573 00000521 52                              	PUSH	EDX
   574 00000522 51                              	PUSH	ECX
   575 00000523 50                              	PUSH	EAX
   576 00000524 6A 00                           	PUSH	0
   577 00000526 FF 35 [000001BC]                	PUSH	DWORD [_width]
   578 0000052C FF 35 [00000330]                	PUSH	DWORD [_buf_window]
   579 00000532 E8 [00000000]                   	CALL	_draw_rect
   580 00000537 6A 00                           	PUSH	0
   581 00000539 8B 0D [0000000C]                	MOV	ECX,DWORD [_yc]
   582 0000053F C1 E1 04                        	SAL	ECX,4
   583 00000542 8D 41 26                        	LEA	EAX,DWORD [38+ECX]
   584 00000545 83 C1 16                        	ADD	ECX,22
   585 00000548 50                              	PUSH	EAX
   586 00000549 A1 [00000008]                   	MOV	EAX,DWORD [_xc]
   587 0000054E C1 E0 03                        	SAL	EAX,3
   588 00000551 8D 50 0B                        	LEA	EDX,DWORD [11+EAX]
   589 00000554 83 C0 03                        	ADD	EAX,3
   590 00000557 52                              	PUSH	EDX
   591 00000558 51                              	PUSH	ECX
   592 00000559 50                              	PUSH	EAX
   593 0000055A FF 35 [0000032C]                	PUSH	DWORD [_sht_window]
   594 00000560 E8 [00000000]                   	CALL	_sheet_refresh
   595 00000565 83 C4 34                        	ADD	ESP,52
   596 00000568 FF 05 [00000008]                	INC	DWORD [_xc]
   597 0000056E 4E                              	DEC	ESI
   598 0000056F 0F 84 00000098                  	JE	L91
   599 00000575 0F BE C3                        	MOVSX	EAX,BL
   600 00000578 C1 E0 04                        	SAL	EAX,4
   601 0000057B 05 [00000000]                   	ADD	EAX,_hankaku
   602 00000580 50                              	PUSH	EAX
   603 00000581 A1 [00000004]                   	MOV	EAX,DWORD [_y]
   604 00000586 C1 E0 04                        	SAL	EAX,4
   605 00000589 83 C0 16                        	ADD	EAX,22
   606 0000058C 50                              	PUSH	EAX
   607 0000058D A1 [00000000]                   	MOV	EAX,DWORD [_x]
   608 00000592 8D 04 C5 00000003               	LEA	EAX,DWORD [3+EAX*8]
   609 00000599 50                              	PUSH	EAX
   610 0000059A 6A 02                           	PUSH	2
   611 0000059C                                 L90:
   612 0000059C FF 35 [000001BC]                	PUSH	DWORD [_width]
   613 000005A2 FF 35 [00000330]                	PUSH	DWORD [_buf_window]
   614 000005A8 E8 [00000000]                   	CALL	_draw_char
   615 000005AD 83 C4 18                        	ADD	ESP,24
   616 000005B0 6A 00                           	PUSH	0
   617 000005B2 8B 0D [00000004]                	MOV	ECX,DWORD [_y]
   618 000005B8 C1 E1 04                        	SAL	ECX,4
   619 000005BB 8D 41 26                        	LEA	EAX,DWORD [38+ECX]
   620 000005BE 83 C1 16                        	ADD	ECX,22
   621 000005C1 50                              	PUSH	EAX
   622 000005C2 A1 [00000000]                   	MOV	EAX,DWORD [_x]
   623 000005C7 C1 E0 03                        	SAL	EAX,3
   624 000005CA 8D 50 0B                        	LEA	EDX,DWORD [11+EAX]
   625 000005CD 83 C0 03                        	ADD	EAX,3
   626 000005D0 52                              	PUSH	EDX
   627 000005D1 51                              	PUSH	ECX
   628 000005D2 50                              	PUSH	EAX
   629 000005D3 FF 35 [0000032C]                	PUSH	DWORD [_sht_window]
   630 000005D9 E8 [00000000]                   	CALL	_sheet_refresh
   631 000005DE 83 C4 18                        	ADD	ESP,24
   632 000005E1 A1 [00000000]                   	MOV	EAX,DWORD [_x]
   633 000005E6 40                              	INC	EAX
   634 000005E7 A3 [00000000]                   	MOV	DWORD [_x],EAX
   635 000005EC 3B 05 [000001C4]                	CMP	EAX,DWORD [_cols]
   636 000005F2 74 07                           	JE	L92
   637 000005F4 8D 65 F8                        	LEA	ESP,DWORD [-8+EBP]
   638 000005F7 5B                              	POP	EBX
   639 000005F8 5E                              	POP	ESI
   640 000005F9 5D                              	POP	EBP
   641 000005FA C3                              	RET
   642 000005FB                                 L92:
   643 000005FB C7 45 08 00000000               	MOV	DWORD [8+EBP],0
   644 00000602 8D 65 F8                        	LEA	ESP,DWORD [-8+EBP]
   645 00000605 5B                              	POP	EBX
   646 00000606 5E                              	POP	ESI
   647 00000607 5D                              	POP	EBP
   648 00000608 E9 FFFFFD90                     	JMP	_new_line
   649 0000060D                                 L91:
   650 0000060D 0F BE C3                        	MOVSX	EAX,BL
   651 00000610 C1 E0 04                        	SAL	EAX,4
   652 00000613 05 [00000000]                   	ADD	EAX,_hankaku
   653 00000618 50                              	PUSH	EAX
   654 00000619 A1 [00000004]                   	MOV	EAX,DWORD [_y]
   655 0000061E C1 E0 04                        	SAL	EAX,4
   656 00000621 83 C0 16                        	ADD	EAX,22
   657 00000624 50                              	PUSH	EAX
   658 00000625 A1 [00000000]                   	MOV	EAX,DWORD [_x]
   659 0000062A 8D 04 C5 00000003               	LEA	EAX,DWORD [3+EAX*8]
   660 00000631 50                              	PUSH	EAX
   661 00000632 6A 01                           	PUSH	1
   662 00000634 E9 FFFFFF63                     	JMP	L90
   663 00000639                                 	GLOBAL	_print_string
   664 00000639                                 _print_string:
   665 00000639 55                              	PUSH	EBP
   666 0000063A 89 E5                           	MOV	EBP,ESP
   667 0000063C 53                              	PUSH	EBX
   668 0000063D 6A 00                           	PUSH	0
   669 0000063F 8B 5D 08                        	MOV	EBX,DWORD [8+EBP]
   670 00000642 E8 FFFFFD56                     	CALL	_new_line
   671 00000647 59                              	POP	ECX
   672 00000648 80 3B 00                        	CMP	BYTE [EBX],0
   673 0000064B 75 05                           	JNE	L97
   674 0000064D                                 L99:
   675 0000064D 8B 5D FC                        	MOV	EBX,DWORD [-4+EBP]
   676 00000650 C9                              	LEAVE
   677 00000651 C3                              	RET
   678 00000652                                 L97:
   679 00000652 6A 00                           	PUSH	0
   680 00000654 0F BE 03                        	MOVSX	EAX,BYTE [EBX]
   681 00000657 50                              	PUSH	EAX
   682 00000658 43                              	INC	EBX
   683 00000659 E8 FFFFFE9A                     	CALL	_new_char
   684 0000065E 58                              	POP	EAX
   685 0000065F 5A                              	POP	EDX
   686 00000660 80 3B 00                        	CMP	BYTE [EBX],0
   687 00000663 75 ED                           	JNE	L97
   688 00000665 EB E6                           	JMP	L99
   689 00000667                                 	GLOBAL	_print_error
   690 00000667                                 _print_error:
   691 00000667 55                              	PUSH	EBP
   692 00000668 89 E5                           	MOV	EBP,ESP
   693 0000066A 53                              	PUSH	EBX
   694 0000066B 6A 00                           	PUSH	0
   695 0000066D 8B 5D 08                        	MOV	EBX,DWORD [8+EBP]
   696 00000670 E8 FFFFFD28                     	CALL	_new_line
   697 00000675 59                              	POP	ECX
   698 00000676 80 3B 00                        	CMP	BYTE [EBX],0
   699 00000679 75 05                           	JNE	L104
   700 0000067B                                 L106:
   701 0000067B 8B 5D FC                        	MOV	EBX,DWORD [-4+EBP]
   702 0000067E C9                              	LEAVE
   703 0000067F C3                              	RET
   704 00000680                                 L104:
   705 00000680 6A 01                           	PUSH	1
   706 00000682 0F BE 03                        	MOVSX	EAX,BYTE [EBX]
   707 00000685 50                              	PUSH	EAX
   708 00000686 43                              	INC	EBX
   709 00000687 E8 FFFFFE6C                     	CALL	_new_char
   710 0000068C 58                              	POP	EAX
   711 0000068D 5A                              	POP	EDX
   712 0000068E 80 3B 00                        	CMP	BYTE [EBX],0
   713 00000691 75 ED                           	JNE	L104
   714 00000693 EB E6                           	JMP	L106
   715 00000695                                 _parse_cmd:
   716 00000695 55                              	PUSH	EBP
   717 00000696 BA [00000260]                   	MOV	EDX,_cmd_buf
   718 0000069B 89 E5                           	MOV	EBP,ESP
   719 0000069D B9 [000001D0]                   	MOV	ECX,_arg_buf
   720 000006A2 53                              	PUSH	EBX
   721 000006A3 31 DB                           	XOR	EBX,EBX
   722 000006A5                                 L123:
   723 000006A5 80 3A 20                        	CMP	BYTE [EDX],32
   724 000006A8 74 35                           	JE	L114
   725 000006AA                                 L127:
   726 000006AA 8A 02                           	MOV	AL,BYTE [EDX]
   727 000006AC 3C 0A                           	CMP	AL,10
   728 000006AE 74 2C                           	JE	L107
   729 000006B0 84 C0                           	TEST	AL,AL
   730 000006B2 74 28                           	JE	L107
   731 000006B4 FF 05 [00000254]                	INC	DWORD [_argc]
   732 000006BA 89 11                           	MOV	DWORD [ECX],EDX
   733 000006BC 3C 20                           	CMP	AL,32
   734 000006BE 74 10                           	JE	L129
   735 000006C0                                 L122:
   736 000006C0 8A 02                           	MOV	AL,BYTE [EDX]
   737 000006C2 3C 0A                           	CMP	AL,10
   738 000006C4 74 13                           	JE	L130
   739 000006C6 84 C0                           	TEST	AL,AL
   740 000006C8 74 0F                           	JE	L130
   741 000006CA 42                              	INC	EDX
   742 000006CB 80 3A 20                        	CMP	BYTE [EDX],32
   743 000006CE 75 F0                           	JNE	L122
   744 000006D0                                 L129:
   745 000006D0 43                              	INC	EBX
   746 000006D1 83 C1 04                        	ADD	ECX,4
   747 000006D4 80 FB 20                        	CMP	BL,32
   748 000006D7 7E CC                           	JLE	L123
   749 000006D9                                 L130:
   750 000006D9 C6 02 00                        	MOV	BYTE [EDX],0
   751 000006DC                                 L107:
   752 000006DC 5B                              	POP	EBX
   753 000006DD 5D                              	POP	EBP
   754 000006DE C3                              	RET
   755 000006DF                                 L114:
   756 000006DF C6 02 00                        	MOV	BYTE [EDX],0
   757 000006E2 42                              	INC	EDX
   758 000006E3 80 3A 20                        	CMP	BYTE [EDX],32
   759 000006E6 74 F7                           	JE	L114
   760 000006E8 EB C0                           	JMP	L127
   761 000006EA                                 _str_cmp:
   762 000006EA 55                              	PUSH	EBP
   763 000006EB 89 E5                           	MOV	EBP,ESP
   764 000006ED 53                              	PUSH	EBX
   765 000006EE B3 01                           	MOV	BL,1
   766 000006F0 8B 55 0C                        	MOV	EDX,DWORD [12+EBP]
   767 000006F3 8B 4D 08                        	MOV	ECX,DWORD [8+EBP]
   768 000006F6 80 3A 00                        	CMP	BYTE [EDX],0
   769 000006F9 74 0F                           	JE	L139
   770 000006FB                                 L136:
   771 000006FB 8A 02                           	MOV	AL,BYTE [EDX]
   772 000006FD 38 01                           	CMP	BYTE [ECX],AL
   773 000006FF 74 02                           	JE	L135
   774 00000701 31 DB                           	XOR	EBX,EBX
   775 00000703                                 L135:
   776 00000703 42                              	INC	EDX
   777 00000704 41                              	INC	ECX
   778 00000705 80 3A 00                        	CMP	BYTE [EDX],0
   779 00000708 75 F1                           	JNE	L136
   780 0000070A                                 L139:
   781 0000070A 80 39 00                        	CMP	BYTE [ECX],0
   782 0000070D 74 02                           	JE	L137
   783 0000070F 31 DB                           	XOR	EBX,EBX
   784 00000711                                 L137:
   785 00000711 0F BE C3                        	MOVSX	EAX,BL
   786 00000714 5B                              	POP	EBX
   787 00000715 5D                              	POP	EBP
   788 00000716 C3                              	RET
   789 00000717                                 _str_uppercase:
   790 00000717 55                              	PUSH	EBP
   791 00000718 31 C9                           	XOR	ECX,ECX
   792 0000071A 89 E5                           	MOV	EBP,ESP
   793 0000071C 53                              	PUSH	EBX
   794 0000071D 8B 5D 08                        	MOV	EBX,DWORD [8+EBP]
   795 00000720 80 3B 00                        	CMP	BYTE [EBX],0
   796 00000723 74 17                           	JE	L147
   797 00000725                                 L145:
   798 00000725 8A 14 19                        	MOV	DL,BYTE [ECX+EBX*1]
   799 00000728 8D 42 9F                        	LEA	EAX,DWORD [-97+EDX]
   800 0000072B 3C 19                           	CMP	AL,25
   801 0000072D 77 06                           	JA	L144
   802 0000072F 8D 42 E0                        	LEA	EAX,DWORD [-32+EDX]
   803 00000732 88 04 19                        	MOV	BYTE [ECX+EBX*1],AL
   804 00000735                                 L144:
   805 00000735 41                              	INC	ECX
   806 00000736 80 3C 19 00                     	CMP	BYTE [ECX+EBX*1],0
   807 0000073A 75 E9                           	JNE	L145
   808 0000073C                                 L147:
   809 0000073C 5B                              	POP	EBX
   810 0000073D 5D                              	POP	EBP
   811 0000073E C3                              	RET
   812 0000073F                                 _restore:
   813 0000073F 55                              	PUSH	EBP
   814 00000740 31 C0                           	XOR	EAX,EAX
   815 00000742 89 E5                           	MOV	EBP,ESP
   816 00000744 C7 05 [00000328] 00000000       	MOV	DWORD [_index],0
   817 0000074E C7 05 [00000254] 00000000       	MOV	DWORD [_argc],0
   818 00000758                                 L153:
   819 00000758 C7 04 85 [000001D0] 00000000    	MOV	DWORD [_arg_buf+EAX*4],0
   820 00000763 40                              	INC	EAX
   821 00000764 83 F8 20                        	CMP	EAX,32
   822 00000767 7E EF                           	JLE	L153
   823 00000769 31 C0                           	XOR	EAX,EAX
   824 0000076B                                 L158:
   825 0000076B C6 80 [00000260] 00             	MOV	BYTE [_cmd_buf+EAX],0
   826 00000772 40                              	INC	EAX
   827 00000773 3D 000000C7                     	CMP	EAX,199
   828 00000778 7E F1                           	JLE	L158
   829 0000077A 5D                              	POP	EBP
   830 0000077B C3                              	RET
   831 0000077C                                 	GLOBAL	_program_addr
   832                                          [SECTION .data]
   833 0000017E 00 00                           	ALIGNB	4
   834 00000180                                 _program_addr:
   835 00000180 00000000                        	DD	0
   836 00000184                                 LC20:
   837 00000184 49 6C 6C 65 67 61 6C 20 45 78   	DB	"Illegal Executable File",0x00
       0000018E 65 63 75 74 61 62 6C 65 20 46 
       00000198 69 6C 65 00 
   838                                          [SECTION .text]
   839 0000077C                                 _run_program:
   840 0000077C 55                              	PUSH	EBP
   841 0000077D B9 0000000D                     	MOV	ECX,13
   842 00000782 89 E5                           	MOV	EBP,ESP
   843 00000784 31 C0                           	XOR	EAX,EAX
   844 00000786 57                              	PUSH	EDI
   845 00000787 56                              	PUSH	ESI
   846 00000788 8D 7D D4                        	LEA	EDI,DWORD [-44+EBP]
   847 0000078B FC                              	CLD
   848 0000078C 53                              	PUSH	EBX
   849 0000078D 83 EC 3C                        	SUB	ESP,60
   850 00000790 C7 45 E4 00000000               	MOV	DWORD [-28+EBP],0
   851 00000797 C7 45 E8 00000000               	MOV	DWORD [-24+EBP],0
   852 0000079E C6 45 EC 00                     	MOV	BYTE [-20+EBP],0
   853 000007A2 F3                              	REP
   854 000007A3 AA                              	STOSB
   855 000007A4 C7 45 C8 00000000               	MOV	DWORD [-56+EBP],0
   856 000007AB                                 L200:
   857 000007AB 8B 4D C8                        	MOV	ECX,DWORD [-56+EBP]
   858 000007AE C1 E1 05                        	SAL	ECX,5
   859 000007B1 8A 99 00102600                  	MOV	BL,BYTE [1058304+ECX]
   860 000007B7 84 DB                           	TEST	BL,BL
   861 000007B9 74 16                           	JE	L166
   862 000007BB 8B 45 08                        	MOV	EAX,DWORD [8+EBP]
   863 000007BE 8A 00                           	MOV	AL,BYTE [EAX]
   864 000007C0 88 45 BB                        	MOV	BYTE [-69+EBP],AL
   865 000007C3 0F BE D0                        	MOVSX	EDX,AL
   866 000007C6 0F B6 81 00102608               	MOVZX	EAX,BYTE [1058312+ECX]
   867 000007CD 39 C2                           	CMP	EDX,EAX
   868 000007CF 74 16                           	JE	L211
   869 000007D1                                 L166:
   870 000007D1 FF 45 C8                        	INC	DWORD [-56+EBP]
   871 000007D4 81 7D C8 000000DF               	CMP	DWORD [-56+EBP],223
   872 000007DB 7E CE                           	JLE	L200
   873 000007DD 31 C0                           	XOR	EAX,EAX
   874 000007DF                                 L163:
   875 000007DF 8D 65 F4                        	LEA	ESP,DWORD [-12+EBP]
   876 000007E2 5B                              	POP	EBX
   877 000007E3 5E                              	POP	ESI
   878 000007E4 5F                              	POP	EDI
   879 000007E5 5D                              	POP	EBP
   880 000007E6 C3                              	RET
   881 000007E7                                 L211:
   882 000007E7 8B 45 08                        	MOV	EAX,DWORD [8+EBP]
   883 000007EA 8A 40 01                        	MOV	AL,BYTE [1+EAX]
   884 000007ED 88 45 BA                        	MOV	BYTE [-70+EBP],AL
   885 000007F0 0F BE D0                        	MOVSX	EDX,AL
   886 000007F3 0F B6 81 00102609               	MOVZX	EAX,BYTE [1058313+ECX]
   887 000007FA 39 C2                           	CMP	EDX,EAX
   888 000007FC 75 D3                           	JNE	L166
   889 000007FE 8B 45 08                        	MOV	EAX,DWORD [8+EBP]
   890 00000801 8A 40 02                        	MOV	AL,BYTE [2+EAX]
   891 00000804 88 45 B9                        	MOV	BYTE [-71+EBP],AL
   892 00000807 0F BE D0                        	MOVSX	EDX,AL
   893 0000080A 0F B6 81 0010260A               	MOVZX	EAX,BYTE [1058314+ECX]
   894 00000811 39 C2                           	CMP	EDX,EAX
   895 00000813 75 BC                           	JNE	L166
   896 00000815 80 FB E5                        	CMP	BL,-27
   897 00000818 74 B7                           	JE	L166
   898 0000081A F6 81 0010260B 18               	TEST	BYTE [1058315+ECX],24
   899 00000821 75 AE                           	JNE	L166
   900 00000823 31 F6                           	XOR	ESI,ESI
   901 00000825                                 L177:
   902 00000825 C6 44 35 E4 00                  	MOV	BYTE [-28+EBP+ESI*1],0
   903 0000082A 46                              	INC	ESI
   904 0000082B 83 FE 08                        	CMP	ESI,8
   905 0000082E 7E F5                           	JLE	L177
   906 00000830 31 F6                           	XOR	ESI,ESI
   907 00000832                                 L182:
   908 00000832 C6 44 35 D4 00                  	MOV	BYTE [-44+EBP+ESI*1],0
   909 00000837 46                              	INC	ESI
   910 00000838 83 FE 0C                        	CMP	ESI,12
   911 0000083B 7E F5                           	JLE	L182
   912 0000083D 31 F6                           	XOR	ESI,ESI
   913 0000083F                                 L189:
   914 0000083F 8B 5D C8                        	MOV	EBX,DWORD [-56+EBP]
   915 00000842 8D 96 00102600                  	LEA	EDX,DWORD [1058304+ESI]
   916 00000848 C1 E3 05                        	SAL	EBX,5
   917 0000084B 8A 04 13                        	MOV	AL,BYTE [EBX+EDX*1]
   918 0000084E 3C 20                           	CMP	AL,32
   919 00000850 74 11                           	JE	L184
   920 00000852 88 44 35 E4                     	MOV	BYTE [-28+EBP+ESI*1],AL
   921 00000856 8A 04 13                        	MOV	AL,BYTE [EBX+EDX*1]
   922 00000859 88 44 35 D4                     	MOV	BYTE [-44+EBP+ESI*1],AL
   923 0000085D 46                              	INC	ESI
   924 0000085E 83 FE 07                        	CMP	ESI,7
   925 00000861 7E DC                           	JLE	L189
   926 00000863                                 L184:
   927 00000863 C6 44 35 D4 2E                  	MOV	BYTE [-44+EBP+ESI*1],46
   928 00000868 8A 45 BB                        	MOV	AL,BYTE [-69+EBP]
   929 0000086B 88 44 35 D5                     	MOV	BYTE [-43+EBP+ESI*1],AL
   930 0000086F 8A 45 BA                        	MOV	AL,BYTE [-70+EBP]
   931 00000872 88 44 35 D6                     	MOV	BYTE [-42+EBP+ESI*1],AL
   932 00000876 8A 45 B9                        	MOV	AL,BYTE [-71+EBP]
   933 00000879 88 44 35 D7                     	MOV	BYTE [-41+EBP+ESI*1],AL
   934 0000087D 8D 45 E4                        	LEA	EAX,DWORD [-28+EBP]
   935 00000880 50                              	PUSH	EAX
   936 00000881 FF 35 [000001D0]                	PUSH	DWORD [_arg_buf]
   937 00000887 E8 FFFFFE5E                     	CALL	_str_cmp
   938 0000088C 5E                              	POP	ESI
   939 0000088D 5F                              	POP	EDI
   940 0000088E 84 C0                           	TEST	AL,AL
   941 00000890 75 19                           	JNE	L191
   942 00000892 8D 45 D4                        	LEA	EAX,DWORD [-44+EBP]
   943 00000895 50                              	PUSH	EAX
   944 00000896 FF 35 [000001D0]                	PUSH	DWORD [_arg_buf]
   945 0000089C E8 FFFFFE49                     	CALL	_str_cmp
   946 000008A1 5A                              	POP	EDX
   947 000008A2 59                              	POP	ECX
   948 000008A3 84 C0                           	TEST	AL,AL
   949 000008A5 0F 84 FFFFFF26                  	JE	L166
   950 000008AB                                 L191:
   951 000008AB 8B B3 0010261C                  	MOV	ESI,DWORD [1058332+EBX]
   952 000008B1 68 00002D00                     	PUSH	11520
   953 000008B6 E8 [00000000]                   	CALL	_mm_malloc
   954 000008BB 68 00100200                     	PUSH	1049088
   955 000008C0 50                              	PUSH	EAX
   956 000008C1 89 45 D0                        	MOV	DWORD [-48+EBP],EAX
   957 000008C4 E8 [00000000]                   	CALL	_file_readfat
   958 000008C9 56                              	PUSH	ESI
   959 000008CA E8 [00000000]                   	CALL	_mm_malloc
   960 000008CF 68 00103E00                     	PUSH	1064448
   961 000008D4 FF 75 D0                        	PUSH	DWORD [-48+EBP]
   962 000008D7 50                              	PUSH	EAX
   963 000008D8 89 C7                           	MOV	EDI,EAX
   964 000008DA 56                              	PUSH	ESI
   965 000008DB 0F B7 83 0010261A               	MOVZX	EAX,WORD [1058330+EBX]
   966 000008E2 50                              	PUSH	EAX
   967 000008E3 E8 [00000000]                   	CALL	_file_loadfile
   968 000008E8 83 C4 24                        	ADD	ESP,36
   969 000008EB 83 FE 23                        	CMP	ESI,35
   970 000008EE 7E 06                           	JLE	L192
   971 000008F0 80 7F 04 48                     	CMP	BYTE [4+EDI],72
   972 000008F4 74 23                           	JE	L212
   973 000008F6                                 L192:
   974 000008F6 68 [00000184]                   	PUSH	LC20
   975 000008FB E8 FFFFFD67                     	CALL	_print_error
   976 00000900                                 L210:
   977 00000900 5B                              	POP	EBX
   978 00000901 FF 75 D0                        	PUSH	DWORD [-48+EBP]
   979 00000904 E8 [00000000]                   	CALL	_mm_free
   980 00000909 57                              	PUSH	EDI
   981 0000090A E8 [00000000]                   	CALL	_mm_free
   982 0000090F B8 00000001                     	MOV	EAX,1
   983 00000914 E9 FFFFFEC6                     	JMP	L163
   984 00000919                                 L212:
   985 00000919 80 7F 05 61                     	CMP	BYTE [5+EDI],97
   986 0000091D 75 D7                           	JNE	L192
   987 0000091F 80 7F 06 72                     	CMP	BYTE [6+EDI],114
   988 00000923 75 D1                           	JNE	L192
   989 00000925 80 7F 07 69                     	CMP	BYTE [7+EDI],105
   990 00000929 75 CB                           	JNE	L192
   991 0000092B 8B 47 0C                        	MOV	EAX,DWORD [12+EDI]
   992 0000092E 8B 1F                           	MOV	EBX,DWORD [EDI]
   993 00000930 89 45 C0                        	MOV	DWORD [-64+EBP],EAX
   994 00000933 8B 47 10                        	MOV	EAX,DWORD [16+EDI]
   995 00000936 89 45 C4                        	MOV	DWORD [-60+EBP],EAX
   996 00000939 8B 47 14                        	MOV	EAX,DWORD [20+EDI]
   997 0000093C 89 45 BC                        	MOV	DWORD [-68+EBP],EAX
   998 0000093F 8B 47 20                        	MOV	EAX,DWORD [32+EDI]
   999 00000942 A3 [00000334]                   	MOV	DWORD [_malloc_addr],EAX
  1000 00000947 C6 07 E8                        	MOV	BYTE [EDI],-24
  1001 0000094A C6 47 01 16                     	MOV	BYTE [1+EDI],22
  1002 0000094E C6 47 02 00                     	MOV	BYTE [2+EDI],0
  1003 00000952 C6 47 03 00                     	MOV	BYTE [3+EDI],0
  1004 00000956 C6 47 04 00                     	MOV	BYTE [4+EDI],0
  1005 0000095A C6 47 05 B8                     	MOV	BYTE [5+EDI],-72
  1006 0000095E C6 47 06 00                     	MOV	BYTE [6+EDI],0
  1007 00000962 C6 47 07 00                     	MOV	BYTE [7+EDI],0
  1008 00000966 C6 47 08 00                     	MOV	BYTE [8+EDI],0
  1009 0000096A C6 47 09 00                     	MOV	BYTE [9+EDI],0
  1010 0000096E C6 47 0A CD                     	MOV	BYTE [10+EDI],-51
  1011 00000972 C6 47 0B 30                     	MOV	BYTE [11+EDI],48
  1012 00000976 53                              	PUSH	EBX
  1013 00000977 4B                              	DEC	EBX
  1014 00000978 E8 [00000000]                   	CALL	_mm_malloc
  1015 0000097D 68 000040FA                     	PUSH	16634
  1016 00000982 57                              	PUSH	EDI
  1017 00000983 89 45 CC                        	MOV	DWORD [-52+EBP],EAX
  1018 00000986 8D 46 FF                        	LEA	EAX,DWORD [-1+ESI]
  1019 00000989 50                              	PUSH	EAX
  1020 0000098A 68 00271F58                     	PUSH	2563928
  1021 0000098F E8 [00000000]                   	CALL	_set_segmdesc
  1022 00000994 68 000040F2                     	PUSH	16626
  1023 00000999 FF 75 CC                        	PUSH	DWORD [-52+EBP]
  1024 0000099C 53                              	PUSH	EBX
  1025 0000099D 68 00271F60                     	PUSH	2563936
  1026 000009A2 E8 [00000000]                   	CALL	_set_segmdesc
  1027 000009A7 83 C4 24                        	ADD	ESP,36
  1028 000009AA 83 7D C4 00                     	CMP	DWORD [-60+EBP],0
  1029 000009AE 7E 1C                           	JLE	L209
  1030 000009B0 8B 4D C0                        	MOV	ECX,DWORD [-64+EBP]
  1031 000009B3 8B 55 BC                        	MOV	EDX,DWORD [-68+EBP]
  1032 000009B6 8B 45 C4                        	MOV	EAX,DWORD [-60+EBP]
  1033 000009B9 01 FA                           	ADD	EDX,EDI
  1034 000009BB 03 4D CC                        	ADD	ECX,DWORD [-52+EBP]
  1035 000009BE 89 45 C8                        	MOV	DWORD [-56+EBP],EAX
  1036 000009C1                                 L197:
  1037 000009C1 8A 02                           	MOV	AL,BYTE [EDX]
  1038 000009C3 42                              	INC	EDX
  1039 000009C4 88 01                           	MOV	BYTE [ECX],AL
  1040 000009C6 41                              	INC	ECX
  1041 000009C7 FF 4D C8                        	DEC	DWORD [-56+EBP]
  1042 000009CA 75 F5                           	JNE	L197
  1043 000009CC                                 L209:
  1044 000009CC 8B 45 CC                        	MOV	EAX,DWORD [-52+EBP]
  1045 000009CF A3 [00000180]                   	MOV	DWORD [_program_addr],EAX
  1046 000009D4 C7 05 [00000338] 00000000       	MOV	DWORD [_sheet_created],0
  1047 000009DE E8 [00000000]                   	CALL	_task_now
  1048 000009E3 05 00000428                     	ADD	EAX,1064
  1049 000009E8 50                              	PUSH	EAX
  1050 000009E9 68 00001F60                     	PUSH	8032
  1051 000009EE FF 75 C0                        	PUSH	DWORD [-64+EBP]
  1052 000009F1 68 00001F58                     	PUSH	8024
  1053 000009F6 6A 00                           	PUSH	0
  1054 000009F8 E8 [00000000]                   	CALL	_start_app
  1055 000009FD A1 [00000338]                   	MOV	EAX,DWORD [_sheet_created]
  1056 00000A02 83 C4 14                        	ADD	ESP,20
  1057 00000A05 85 C0                           	TEST	EAX,EAX
  1058 00000A07 C7 05 [00000180] 00000000       	MOV	DWORD [_program_addr],0
  1059 00000A11 C7 05 [00000334] 00000000       	MOV	DWORD [_malloc_addr],0
  1060 00000A1B 75 0D                           	JNE	L213
  1061 00000A1D                                 L198:
  1062 00000A1D FF 75 CC                        	PUSH	DWORD [-52+EBP]
  1063 00000A20 E8 [00000000]                   	CALL	_mm_free
  1064 00000A25 E9 FFFFFED6                     	JMP	L210
  1065 00000A2A                                 L213:
  1066 00000A2A 50                              	PUSH	EAX
  1067 00000A2B E8 [00000000]                   	CALL	_sheet_free
  1068 00000A30 A1 [00000338]                   	MOV	EAX,DWORD [_sheet_created]
  1069 00000A35 FF 30                           	PUSH	DWORD [EAX]
  1070 00000A37 E8 [00000000]                   	CALL	_mm_free
  1071 00000A3C 5E                              	POP	ESI
  1072 00000A3D C7 05 [00000338] 00000000       	MOV	DWORD [_sheet_created],0
  1073 00000A47 58                              	POP	EAX
  1074 00000A48 EB D3                           	JMP	L198
  1075                                          [SECTION .data]
  1076 0000019C                                 LC21:
  1077 0000019C 48 52 42 00                     	DB	"HRB",0x00
  1078 000001A0                                 LC22:
  1079 000001A0 43 6F 6D 6D 61 6E 64 20 4E 6F   	DB	"Command Not Found",0x00
       000001AA 74 20 46 6F 75 6E 64 00 
  1080                                          [SECTION .text]
  1081 00000A4A                                 _run_cmd:
  1082 00000A4A 55                              	PUSH	EBP
  1083 00000A4B 89 E5                           	MOV	EBP,ESP
  1084 00000A4D 56                              	PUSH	ESI
  1085 00000A4E 53                              	PUSH	EBX
  1086 00000A4F 8B 35 [000001D0]                	MOV	ESI,DWORD [_arg_buf]
  1087 00000A55 56                              	PUSH	ESI
  1088 00000A56 E8 FFFFFCBC                     	CALL	_str_uppercase
  1089 00000A5B 59                              	POP	ECX
  1090 00000A5C 83 3D [00000254] 00             	CMP	DWORD [_argc],0
  1091 00000A63 74 2A                           	JE	L214
  1092 00000A65 31 DB                           	XOR	EBX,EBX
  1093 00000A67                                 L221:
  1094 00000A67 FF 34 9D [0000012E]             	PUSH	DWORD [_buildin_cmd+EBX*4]
  1095 00000A6E 56                              	PUSH	ESI
  1096 00000A6F E8 FFFFFC76                     	CALL	_str_cmp
  1097 00000A74 59                              	POP	ECX
  1098 00000A75 5A                              	POP	EDX
  1099 00000A76 84 C0                           	TEST	AL,AL
  1100 00000A78 75 29                           	JNE	L225
  1101 00000A7A 43                              	INC	EBX
  1102 00000A7B 83 FB 09                        	CMP	EBX,9
  1103 00000A7E 7E E7                           	JLE	L221
  1104 00000A80 68 [0000019C]                   	PUSH	LC21
  1105 00000A85 E8 FFFFFCF2                     	CALL	_run_program
  1106 00000A8A 5A                              	POP	EDX
  1107 00000A8B 85 C0                           	TEST	EAX,EAX
  1108 00000A8D 74 07                           	JE	L226
  1109 00000A8F                                 L214:
  1110 00000A8F 8D 65 F8                        	LEA	ESP,DWORD [-8+EBP]
  1111 00000A92 5B                              	POP	EBX
  1112 00000A93 5E                              	POP	ESI
  1113 00000A94 5D                              	POP	EBP
  1114 00000A95 C3                              	RET
  1115 00000A96                                 L226:
  1116 00000A96 68 [000001A0]                   	PUSH	LC22
  1117 00000A9B E8 FFFFFBC7                     	CALL	_print_error
  1118 00000AA0 58                              	POP	EAX
  1119 00000AA1 EB EC                           	JMP	L214
  1120 00000AA3                                 L225:
  1121 00000AA3 FF 14 9D [00000156]             	CALL	DWORD [_buildin_cmd_addr+EBX*4]
  1122 00000AAA EB E3                           	JMP	L214
  1123                                          [SECTION .data]
  1124 000001B2                                 LC23:
  1125 000001B2 43 6F 6D 6D 61 6E 64 00         	DB	"Command",0x00
  1126                                          [SECTION .text]
  1127 00000AAC                                 	GLOBAL	_task_console_main
  1128 00000AAC                                 _task_console_main:
  1129 00000AAC 55                              	PUSH	EBP
  1130 00000AAD 89 E5                           	MOV	EBP,ESP
  1131 00000AAF 53                              	PUSH	EBX
  1132 00000AB0 C7 05 [000001BC] 00000196       	MOV	DWORD [_width],406
  1133 00000ABA C7 05 [000001C0] 00000159       	MOV	DWORD [_height],345
  1134 00000AC4 C7 05 [000001C4] 00000032       	MOV	DWORD [_cols],50
  1135 00000ACE C7 05 [000001C8] 00000014       	MOV	DWORD [_rows],20
  1136 00000AD8 E8 [00000000]                   	CALL	_sheet_alloc
  1137 00000ADD A3 [0000032C]                   	MOV	DWORD [_sht_window],EAX
  1138 00000AE2 A1 [000001C0]                   	MOV	EAX,DWORD [_height]
  1139 00000AE7 0F AF 05 [000001BC]             	IMUL	EAX,DWORD [_width]
  1140 00000AEE 50                              	PUSH	EAX
  1141 00000AEF E8 [00000000]                   	CALL	_mm_malloc
  1142 00000AF4 68 000000FF                     	PUSH	255
  1143 00000AF9 FF 35 [000001C0]                	PUSH	DWORD [_height]
  1144 00000AFF FF 35 [000001BC]                	PUSH	DWORD [_width]
  1145 00000B05 50                              	PUSH	EAX
  1146 00000B06 A3 [00000330]                   	MOV	DWORD [_buf_window],EAX
  1147 00000B0B FF 35 [0000032C]                	PUSH	DWORD [_sht_window]
  1148 00000B11 E8 [00000000]                   	CALL	_sheet_setbuf
  1149 00000B16 6A 01                           	PUSH	1
  1150 00000B18 68 [000001B2]                   	PUSH	LC23
  1151 00000B1D FF 35 [000001C0]                	PUSH	DWORD [_height]
  1152 00000B23 FF 35 [000001BC]                	PUSH	DWORD [_width]
  1153 00000B29 FF 35 [00000330]                	PUSH	DWORD [_buf_window]
  1154 00000B2F E8 [00000000]                   	CALL	_make_window
  1155 00000B34 8B 15 [000001BC]                	MOV	EDX,DWORD [_width]
  1156 00000B3A 83 C4 2C                        	ADD	ESP,44
  1157 00000B3D A1 [000001C0]                   	MOV	EAX,DWORD [_height]
  1158 00000B42 83 E8 04                        	SUB	EAX,4
  1159 00000B45 50                              	PUSH	EAX
  1160 00000B46 8D 42 FC                        	LEA	EAX,DWORD [-4+EDX]
  1161 00000B49 50                              	PUSH	EAX
  1162 00000B4A 6A 16                           	PUSH	22
  1163 00000B4C 6A 03                           	PUSH	3
  1164 00000B4E 6A 00                           	PUSH	0
  1165 00000B50 52                              	PUSH	EDX
  1166 00000B51 FF 35 [00000330]                	PUSH	DWORD [_buf_window]
  1167 00000B57 E8 [00000000]                   	CALL	_draw_rect
  1168 00000B5C FF 35 00268010                  	PUSH	DWORD [2523152]
  1169 00000B62 FF 35 [0000032C]                	PUSH	DWORD [_sht_window]
  1170 00000B68 E8 [00000000]                   	CALL	_sheet_updown
  1171 00000B6D 83 C4 24                        	ADD	ESP,36
  1172 00000B70 6A 46                           	PUSH	70
  1173 00000B72 6A 05                           	PUSH	5
  1174 00000B74 FF 35 [0000032C]                	PUSH	DWORD [_sht_window]
  1175 00000B7A E8 [00000000]                   	CALL	_sheet_slide
  1176 00000B7F 6A 32                           	PUSH	50
  1177 00000B81 6A 01                           	PUSH	1
  1178 00000B83 E8 [00000000]                   	CALL	_start_timing
  1179 00000B88 E8 FFFFFBB2                     	CALL	_restore
  1180 00000B8D 6A 01                           	PUSH	1
  1181 00000B8F E8 FFFFF809                     	CALL	_new_line
  1182 00000B94 83 C4 18                        	ADD	ESP,24
  1183 00000B97                                 L246:
  1184 00000B97 E8 [00000000]                   	CALL	_task_now
  1185 00000B9C 83 C0 10                        	ADD	EAX,16
  1186 00000B9F 50                              	PUSH	EAX
  1187 00000BA0 E8 [00000000]                   	CALL	_fifo_status
  1188 00000BA5 5B                              	POP	EBX
  1189 00000BA6 85 C0                           	TEST	EAX,EAX
  1190 00000BA8 0F 84 000002F6                  	JE	L250
  1191 00000BAE E8 [00000000]                   	CALL	_task_now
  1192 00000BB3 83 C0 10                        	ADD	EAX,16
  1193 00000BB6 50                              	PUSH	EAX
  1194 00000BB7 E8 [00000000]                   	CALL	_fifo_get
  1195 00000BBC 59                              	POP	ECX
  1196 00000BBD 3D 00000201                     	CMP	EAX,513
  1197 00000BC2 0F 84 00000232                  	JE	L251
  1198 00000BC8 0F B6 C0                        	MOVZX	EAX,AL
  1199 00000BCB 50                              	PUSH	EAX
  1200 00000BCC E8 [00000000]                   	CALL	_key_to_char
  1201 00000BD1 88 C3                           	MOV	BL,AL
  1202 00000BD3 58                              	POP	EAX
  1203 00000BD4 84 DB                           	TEST	BL,BL
  1204 00000BD6 74 BF                           	JE	L246
  1205 00000BD8 80 FB 0A                        	CMP	BL,10
  1206 00000BDB 0F 84 0000018B                  	JE	L252
  1207 00000BE1 80 FB 08                        	CMP	BL,8
  1208 00000BE4 74 2C                           	JE	L253
  1209 00000BE6 81 3D [00000328] 000000C6       	CMP	DWORD [_index],198
  1210 00000BF0 7F A5                           	JG	L246
  1211 00000BF2 0F BE C3                        	MOVSX	EAX,BL
  1212 00000BF5 6A 00                           	PUSH	0
  1213 00000BF7 50                              	PUSH	EAX
  1214 00000BF8 E8 FFFFF8FB                     	CALL	_new_char
  1215 00000BFD A1 [00000328]                   	MOV	EAX,DWORD [_index]
  1216 00000C02 88 98 [00000260]                	MOV	BYTE [_cmd_buf+EAX],BL
  1217 00000C08 5B                              	POP	EBX
  1218 00000C09 40                              	INC	EAX
  1219 00000C0A A3 [00000328]                   	MOV	DWORD [_index],EAX
  1220 00000C0F 58                              	POP	EAX
  1221 00000C10 EB 85                           	JMP	L246
  1222 00000C12                                 L253:
  1223 00000C12 83 3D [00000328] 00             	CMP	DWORD [_index],0
  1224 00000C19 0F 84 FFFFFF78                  	JE	L246
  1225 00000C1F 8B 0D [0000000C]                	MOV	ECX,DWORD [_yc]
  1226 00000C25 C1 E1 04                        	SAL	ECX,4
  1227 00000C28 8D 41 25                        	LEA	EAX,DWORD [37+ECX]
  1228 00000C2B 83 C1 16                        	ADD	ECX,22
  1229 00000C2E 50                              	PUSH	EAX
  1230 00000C2F A1 [00000008]                   	MOV	EAX,DWORD [_xc]
  1231 00000C34 C1 E0 03                        	SAL	EAX,3
  1232 00000C37 8D 50 0A                        	LEA	EDX,DWORD [10+EAX]
  1233 00000C3A 83 C0 03                        	ADD	EAX,3
  1234 00000C3D 52                              	PUSH	EDX
  1235 00000C3E 51                              	PUSH	ECX
  1236 00000C3F 50                              	PUSH	EAX
  1237 00000C40 6A 00                           	PUSH	0
  1238 00000C42 FF 35 [000001BC]                	PUSH	DWORD [_width]
  1239 00000C48 FF 35 [00000330]                	PUSH	DWORD [_buf_window]
  1240 00000C4E E8 [00000000]                   	CALL	_draw_rect
  1241 00000C53 8B 0D [0000000C]                	MOV	ECX,DWORD [_yc]
  1242 00000C59 C1 E1 04                        	SAL	ECX,4
  1243 00000C5C 6A 00                           	PUSH	0
  1244 00000C5E 8D 41 26                        	LEA	EAX,DWORD [38+ECX]
  1245 00000C61 83 C1 16                        	ADD	ECX,22
  1246 00000C64 50                              	PUSH	EAX
  1247 00000C65 A1 [00000008]                   	MOV	EAX,DWORD [_xc]
  1248 00000C6A C1 E0 03                        	SAL	EAX,3
  1249 00000C6D 8D 50 0B                        	LEA	EDX,DWORD [11+EAX]
  1250 00000C70 83 C0 03                        	ADD	EAX,3
  1251 00000C73 52                              	PUSH	EDX
  1252 00000C74 51                              	PUSH	ECX
  1253 00000C75 50                              	PUSH	EAX
  1254 00000C76 FF 35 [0000032C]                	PUSH	DWORD [_sht_window]
  1255 00000C7C E8 [00000000]                   	CALL	_sheet_refresh
  1256 00000C81 83 C4 34                        	ADD	ESP,52
  1257 00000C84 A1 [00000000]                   	MOV	EAX,DWORD [_x]
  1258 00000C89 48                              	DEC	EAX
  1259 00000C8A A3 [00000000]                   	MOV	DWORD [_x],EAX
  1260 00000C8F 40                              	INC	EAX
  1261 00000C90 0F 84 000000AB                  	JE	L254
  1262 00000C96                                 L240:
  1263 00000C96 8B 0D [00000004]                	MOV	ECX,DWORD [_y]
  1264 00000C9C C1 E1 04                        	SAL	ECX,4
  1265 00000C9F 8D 41 25                        	LEA	EAX,DWORD [37+ECX]
  1266 00000CA2 83 C1 16                        	ADD	ECX,22
  1267 00000CA5 50                              	PUSH	EAX
  1268 00000CA6 A1 [00000000]                   	MOV	EAX,DWORD [_x]
  1269 00000CAB C1 E0 03                        	SAL	EAX,3
  1270 00000CAE 8D 50 0A                        	LEA	EDX,DWORD [10+EAX]
  1271 00000CB1 83 C0 03                        	ADD	EAX,3
  1272 00000CB4 52                              	PUSH	EDX
  1273 00000CB5 51                              	PUSH	ECX
  1274 00000CB6 50                              	PUSH	EAX
  1275 00000CB7 6A 00                           	PUSH	0
  1276 00000CB9 FF 35 [000001BC]                	PUSH	DWORD [_width]
  1277 00000CBF FF 35 [00000330]                	PUSH	DWORD [_buf_window]
  1278 00000CC5 E8 [00000000]                   	CALL	_draw_rect
  1279 00000CCA 8B 0D [00000004]                	MOV	ECX,DWORD [_y]
  1280 00000CD0 C1 E1 04                        	SAL	ECX,4
  1281 00000CD3 6A 00                           	PUSH	0
  1282 00000CD5 8D 41 26                        	LEA	EAX,DWORD [38+ECX]
  1283 00000CD8 83 C1 16                        	ADD	ECX,22
  1284 00000CDB 50                              	PUSH	EAX
  1285 00000CDC A1 [00000000]                   	MOV	EAX,DWORD [_x]
  1286 00000CE1 C1 E0 03                        	SAL	EAX,3
  1287 00000CE4 8D 50 0B                        	LEA	EDX,DWORD [11+EAX]
  1288 00000CE7 83 C0 03                        	ADD	EAX,3
  1289 00000CEA 52                              	PUSH	EDX
  1290 00000CEB 51                              	PUSH	ECX
  1291 00000CEC 50                              	PUSH	EAX
  1292 00000CED FF 35 [0000032C]                	PUSH	DWORD [_sht_window]
  1293 00000CF3 E8 [00000000]                   	CALL	_sheet_refresh
  1294 00000CF8 A1 [00000008]                   	MOV	EAX,DWORD [_xc]
  1295 00000CFD 83 C4 34                        	ADD	ESP,52
  1296 00000D00 85 C0                           	TEST	EAX,EAX
  1297 00000D02 75 13                           	JNE	L249
  1298 00000D04 A1 [0000000C]                   	MOV	EAX,DWORD [_yc]
  1299 00000D09 48                              	DEC	EAX
  1300 00000D0A A3 [0000000C]                   	MOV	DWORD [_yc],EAX
  1301 00000D0F 40                              	INC	EAX
  1302 00000D10 74 22                           	JE	L255
  1303 00000D12                                 L244:
  1304 00000D12 A1 [000001C4]                   	MOV	EAX,DWORD [_cols]
  1305 00000D17                                 L249:
  1306 00000D17 48                              	DEC	EAX
  1307 00000D18 A3 [00000008]                   	MOV	DWORD [_xc],EAX
  1308 00000D1D A1 [00000328]                   	MOV	EAX,DWORD [_index]
  1309 00000D22 48                              	DEC	EAX
  1310 00000D23 A3 [00000328]                   	MOV	DWORD [_index],EAX
  1311 00000D28 C6 80 [00000260] 00             	MOV	BYTE [_cmd_buf+EAX],0
  1312 00000D2F E9 FFFFFE63                     	JMP	L246
  1313 00000D34                                 L255:
  1314 00000D34 A1 [000001C8]                   	MOV	EAX,DWORD [_rows]
  1315 00000D39 48                              	DEC	EAX
  1316 00000D3A A3 [0000000C]                   	MOV	DWORD [_yc],EAX
  1317 00000D3F EB D1                           	JMP	L244
  1318 00000D41                                 L254:
  1319 00000D41 A1 [00000004]                   	MOV	EAX,DWORD [_y]
  1320 00000D46 48                              	DEC	EAX
  1321 00000D47 A3 [00000004]                   	MOV	DWORD [_y],EAX
  1322 00000D4C 40                              	INC	EAX
  1323 00000D4D 74 10                           	JE	L256
  1324 00000D4F                                 L241:
  1325 00000D4F A1 [000001C4]                   	MOV	EAX,DWORD [_cols]
  1326 00000D54 48                              	DEC	EAX
  1327 00000D55 A3 [00000000]                   	MOV	DWORD [_x],EAX
  1328 00000D5A E9 FFFFFF37                     	JMP	L240
  1329 00000D5F                                 L256:
  1330 00000D5F A1 [000001C8]                   	MOV	EAX,DWORD [_rows]
  1331 00000D64 48                              	DEC	EAX
  1332 00000D65 A3 [00000004]                   	MOV	DWORD [_y],EAX
  1333 00000D6A EB E3                           	JMP	L241
  1334 00000D6C                                 L252:
  1335 00000D6C 83 3D [00000328] 00             	CMP	DWORD [_index],0
  1336 00000D73 0F 84 FFFFFE1E                  	JE	L246
  1337 00000D79 8B 0D [0000000C]                	MOV	ECX,DWORD [_yc]
  1338 00000D7F C1 E1 04                        	SAL	ECX,4
  1339 00000D82 8D 41 25                        	LEA	EAX,DWORD [37+ECX]
  1340 00000D85 83 C1 16                        	ADD	ECX,22
  1341 00000D88 50                              	PUSH	EAX
  1342 00000D89 A1 [00000008]                   	MOV	EAX,DWORD [_xc]
  1343 00000D8E C1 E0 03                        	SAL	EAX,3
  1344 00000D91 8D 50 0A                        	LEA	EDX,DWORD [10+EAX]
  1345 00000D94 83 C0 03                        	ADD	EAX,3
  1346 00000D97 52                              	PUSH	EDX
  1347 00000D98 51                              	PUSH	ECX
  1348 00000D99 50                              	PUSH	EAX
  1349 00000D9A 6A 00                           	PUSH	0
  1350 00000D9C FF 35 [000001BC]                	PUSH	DWORD [_width]
  1351 00000DA2 FF 35 [00000330]                	PUSH	DWORD [_buf_window]
  1352 00000DA8 E8 [00000000]                   	CALL	_draw_rect
  1353 00000DAD 8B 0D [0000000C]                	MOV	ECX,DWORD [_yc]
  1354 00000DB3 C1 E1 04                        	SAL	ECX,4
  1355 00000DB6 6A 00                           	PUSH	0
  1356 00000DB8 8D 41 26                        	LEA	EAX,DWORD [38+ECX]
  1357 00000DBB 83 C1 16                        	ADD	ECX,22
  1358 00000DBE 50                              	PUSH	EAX
  1359 00000DBF A1 [00000008]                   	MOV	EAX,DWORD [_xc]
  1360 00000DC4 C1 E0 03                        	SAL	EAX,3
  1361 00000DC7 8D 50 0B                        	LEA	EDX,DWORD [11+EAX]
  1362 00000DCA 83 C0 03                        	ADD	EAX,3
  1363 00000DCD 52                              	PUSH	EDX
  1364 00000DCE 51                              	PUSH	ECX
  1365 00000DCF 50                              	PUSH	EAX
  1366 00000DD0 FF 35 [0000032C]                	PUSH	DWORD [_sht_window]
  1367 00000DD6 E8 [00000000]                   	CALL	_sheet_refresh
  1368 00000DDB 83 C4 34                        	ADD	ESP,52
  1369 00000DDE E8 FFFFF8B2                     	CALL	_parse_cmd
  1370 00000DE3 E8 FFFFFC62                     	CALL	_run_cmd
  1371 00000DE8 E8 FFFFF952                     	CALL	_restore
  1372 00000DED 6A 01                           	PUSH	1
  1373 00000DEF E8 FFFFF5A9                     	CALL	_new_line
  1374 00000DF4                                 L247:
  1375 00000DF4 58                              	POP	EAX
  1376 00000DF5 E9 FFFFFD9D                     	JMP	L246
  1377 00000DFA                                 L251:
  1378 00000DFA 6A 32                           	PUSH	50
  1379 00000DFC 6A 01                           	PUSH	1
  1380 00000DFE E8 [00000000]                   	CALL	_start_timing
  1381 00000E03 58                              	POP	EAX
  1382 00000E04 5A                              	POP	EDX
  1383 00000E05 83 3D [00000010] 00             	CMP	DWORD [_show_cursor],0
  1384 00000E0C 74 71                           	JE	L233
  1385 00000E0E 8B 0D [0000000C]                	MOV	ECX,DWORD [_yc]
  1386 00000E14 C1 E1 04                        	SAL	ECX,4
  1387 00000E17 8D 41 25                        	LEA	EAX,DWORD [37+ECX]
  1388 00000E1A 83 C1 16                        	ADD	ECX,22
  1389 00000E1D 50                              	PUSH	EAX
  1390 00000E1E A1 [00000008]                   	MOV	EAX,DWORD [_xc]
  1391 00000E23 C1 E0 03                        	SAL	EAX,3
  1392 00000E26 8D 50 0A                        	LEA	EDX,DWORD [10+EAX]
  1393 00000E29 83 C0 03                        	ADD	EAX,3
  1394 00000E2C 52                              	PUSH	EDX
  1395 00000E2D 51                              	PUSH	ECX
  1396 00000E2E 50                              	PUSH	EAX
  1397 00000E2F 6A 03                           	PUSH	3
  1398 00000E31                                 L248:
  1399 00000E31 FF 35 [000001BC]                	PUSH	DWORD [_width]
  1400 00000E37 FF 35 [00000330]                	PUSH	DWORD [_buf_window]
  1401 00000E3D E8 [00000000]                   	CALL	_draw_rect
  1402 00000E42 8B 0D [0000000C]                	MOV	ECX,DWORD [_yc]
  1403 00000E48 C1 E1 04                        	SAL	ECX,4
  1404 00000E4B 6A 00                           	PUSH	0
  1405 00000E4D 8D 41 26                        	LEA	EAX,DWORD [38+ECX]
  1406 00000E50 83 C1 16                        	ADD	ECX,22
  1407 00000E53 50                              	PUSH	EAX
  1408 00000E54 A1 [00000008]                   	MOV	EAX,DWORD [_xc]
  1409 00000E59 C1 E0 03                        	SAL	EAX,3
  1410 00000E5C 8D 50 0B                        	LEA	EDX,DWORD [11+EAX]
  1411 00000E5F 83 C0 03                        	ADD	EAX,3
  1412 00000E62 52                              	PUSH	EDX
  1413 00000E63 51                              	PUSH	ECX
  1414 00000E64 50                              	PUSH	EAX
  1415 00000E65 FF 35 [0000032C]                	PUSH	DWORD [_sht_window]
  1416 00000E6B E8 [00000000]                   	CALL	_sheet_refresh
  1417 00000E70 83 C4 34                        	ADD	ESP,52
  1418 00000E73 83 35 [00000010] 01             	XOR	DWORD [_show_cursor],1
  1419 00000E7A E9 FFFFFD18                     	JMP	L246
  1420 00000E7F                                 L233:
  1421 00000E7F 8B 0D [0000000C]                	MOV	ECX,DWORD [_yc]
  1422 00000E85 C1 E1 04                        	SAL	ECX,4
  1423 00000E88 8D 41 25                        	LEA	EAX,DWORD [37+ECX]
  1424 00000E8B 83 C1 16                        	ADD	ECX,22
  1425 00000E8E 50                              	PUSH	EAX
  1426 00000E8F A1 [00000008]                   	MOV	EAX,DWORD [_xc]
  1427 00000E94 C1 E0 03                        	SAL	EAX,3
  1428 00000E97 8D 50 0A                        	LEA	EDX,DWORD [10+EAX]
  1429 00000E9A 83 C0 03                        	ADD	EAX,3
  1430 00000E9D 52                              	PUSH	EDX
  1431 00000E9E 51                              	PUSH	ECX
  1432 00000E9F 50                              	PUSH	EAX
  1433 00000EA0 6A 00                           	PUSH	0
  1434 00000EA2 EB 8D                           	JMP	L248
  1435 00000EA4                                 L250:
  1436 00000EA4 E8 [00000000]                   	CALL	_task_now
  1437 00000EA9 50                              	PUSH	EAX
  1438 00000EAA E8 [00000000]                   	CALL	_task_sleep
  1439 00000EAF E9 FFFFFF40                     	JMP	L247
  1440                                          [SECTION .data]
  1441 000001BA 00 00                           	ALIGNB	4
  1442 000001BC                                 _width:
  1443 000001BC 00 00 00 00                     	RESB	4
  1444                                          [SECTION .data]
  1445 000001C0                                 	ALIGNB	4
  1446 000001C0                                 _height:
  1447 000001C0 00 00 00 00                     	RESB	4
  1448                                          [SECTION .data]
  1449 000001C4                                 	ALIGNB	4
  1450 000001C4                                 _cols:
  1451 000001C4 00 00 00 00                     	RESB	4
  1452                                          [SECTION .data]
  1453 000001C8                                 	ALIGNB	4
  1454 000001C8                                 _rows:
  1455 000001C8 00 00 00 00                     	RESB	4
  1456                                          [SECTION .data]
  1457 000001CC 00 00 00 00                     	ALIGNB	16
  1458 000001D0                                 _arg_buf:
  1459 000001D0 00 00 00 00 00 00 00 00 00 00   	RESB	132
       000001DA 00 00 00 00 00 00 00 00 00 00 
       000001E4 00 00 00 00 00 00 00 00 00 00 
       000001EE 00 00 00 00 00 00 00 00 00 00 
       000001F8 00 00 00 00 00 00 00 00 00 00 
       00000202 00 00 00 00 00 00 00 00 00 00 
       0000020C 00 00 00 00 00 00 00 00 00 00 
       00000216 00 00 00 00 00 00 00 00 00 00 
       00000220 00 00 00 00 00 00 00 00 00 00 
       0000022A 00 00 00 00 00 00 00 00 00 00 
       00000234 00 00 00 00 00 00 00 00 00 00 
       0000023E 00 00 00 00 00 00 00 00 00 00 
       00000248 00 00 00 00 00 00 00 00 00 00 
       00000252 00 00 
  1460                                          [SECTION .data]
  1461 00000254                                 	ALIGNB	4
  1462 00000254                                 _argc:
  1463 00000254 00 00 00 00                     	RESB	4
  1464                                          [SECTION .data]
  1465 00000258 00 00 00 00 00 00 00 00         	ALIGNB	16
  1466 00000260                                 _cmd_buf:
  1467 00000260 00 00 00 00 00 00 00 00 00 00   	RESB	200
       0000026A 00 00 00 00 00 00 00 00 00 00 
       00000274 00 00 00 00 00 00 00 00 00 00 
       0000027E 00 00 00 00 00 00 00 00 00 00 
       00000288 00 00 00 00 00 00 00 00 00 00 
       00000292 00 00 00 00 00 00 00 00 00 00 
       0000029C 00 00 00 00 00 00 00 00 00 00 
       000002A6 00 00 00 00 00 00 00 00 00 00 
       000002B0 00 00 00 00 00 00 00 00 00 00 
       000002BA 00 00 00 00 00 00 00 00 00 00 
       000002C4 00 00 00 00 00 00 00 00 00 00 
       000002CE 00 00 00 00 00 00 00 00 00 00 
       000002D8 00 00 00 00 00 00 00 00 00 00 
       000002E2 00 00 00 00 00 00 00 00 00 00 
       000002EC 00 00 00 00 00 00 00 00 00 00 
       000002F6 00 00 00 00 00 00 00 00 00 00 
       00000300 00 00 00 00 00 00 00 00 00 00 
       0000030A 00 00 00 00 00 00 00 00 00 00 
       00000314 00 00 00 00 00 00 00 00 00 00 
       0000031E 00 00 00 00 00 00 00 00 00 00 
  1468                                          [SECTION .data]
  1469 00000328                                 	ALIGNB	4
  1470 00000328                                 _index:
  1471 00000328 00 00 00 00                     	RESB	4
  1472                                          [SECTION .data]
  1473 0000032C                                 	ALIGNB	4
  1474 0000032C                                 _sht_window:
  1475 0000032C 00 00 00 00                     	RESB	4
  1476                                          [SECTION .data]
  1477 00000330                                 	ALIGNB	4
  1478 00000330                                 _buf_window:
  1479 00000330 00 00 00 00                     	RESB	4
  1480 00000334                                 	GLOBAL	_malloc_addr
  1481                                          [SECTION .data]
  1482 00000334                                 	ALIGNB	4
  1483 00000334                                 _malloc_addr:
  1484 00000334 00 00 00 00                     	RESB	4
  1485 00000338                                 	GLOBAL	_sheet_created
  1486                                          [SECTION .data]
  1487 00000338                                 	ALIGNB	4
  1488 00000338                                 _sheet_created:
  1489 00000338 00 00 00 00                     	RESB	4
