     1 00000000                                 [FORMAT "WCOFF"]
     2 00000000                                 [INSTRSET "i486p"]
     3 00000000                                 [OPTIMIZE 1]
     4 00000000                                 [OPTION 1]
     5 00000000                                 [BITS 32]
     6 00000000                                 	EXTERN	_yc
     7 00000000                                 	EXTERN	_xc
     8 00000000                                 	EXTERN	_y
     9 00000000                                 	EXTERN	_x
    10 00000000                                 	EXTERN	_mm_total
    11 00000000                                 	EXTERN	_mm_check
    12 00000000                                 	EXTERN	_mm_sbrk
    13 00000000                                 	EXTERN	_sprintf
    14 00000000                                 	EXTERN	_mm_malloc
    15 00000000                                 	EXTERN	_file_readfat
    16 00000000                                 	EXTERN	_file_loadfile
    17 00000000                                 	EXTERN	_mm_free
    18 00000000                                 	EXTERN	_draw_rect
    19 00000000                                 	EXTERN	_sheet_refresh
    20 00000000                                 	EXTERN	_hankaku
    21 00000000                                 	EXTERN	_draw_char
    22 00000000                                 	EXTERN	_sheet_alloc
    23 00000000                                 	EXTERN	_sheet_setbuf
    24 00000000                                 	EXTERN	_make_window
    25 00000000                                 	EXTERN	_sheet_updown
    26 00000000                                 	EXTERN	_sheet_slide
    27 00000000                                 	EXTERN	_start_timing
    28 00000000                                 	EXTERN	_task_now
    29 00000000                                 	EXTERN	_fifo_status
    30 00000000                                 	EXTERN	_fifo_get
    31 00000000                                 	EXTERN	_key_to_char
    32 00000000                                 	EXTERN	_show_cursor
    33 00000000                                 	EXTERN	_task_sleep
    34 00000000                                 [FILE "console.c"]
    35                                          [SECTION .data]
    36 00000000                                 	ALIGNB	4
    37 00000000                                 _x:
    38 00000000 FFFFFFFF                        	DD	-1
    39 00000004                                 	ALIGNB	4
    40 00000004                                 _y:
    41 00000004 FFFFFFFF                        	DD	-1
    42 00000008                                 	ALIGNB	4
    43 00000008                                 _xc:
    44 00000008 FFFFFFFF                        	DD	-1
    45 0000000C                                 	ALIGNB	4
    46 0000000C                                 _yc:
    47 0000000C FFFFFFFF                        	DD	-1
    48 00000010                                 	ALIGNB	4
    49 00000010                                 _show_cursor:
    50 00000010 00000001                        	DD	1
    51 00000014                                 LC0:
    52 00000014 55 73 61 67 65 3A 20 63 2F 63   	DB	"Usage: c/clear/cls",0x00
       0000001E 6C 65 61 72 2F 63 6C 73 00 
    53                                          [SECTION .text]
    54 00000000                                 _cmd_cls:
    55 00000000 55                              	PUSH	EBP
    56 00000001 89 E5                           	MOV	EBP,ESP
    57 00000003 53                              	PUSH	EBX
    58 00000004 83 3D [00000234] 01             	CMP	DWORD [_argc],1
    59 0000000B 74 0F                           	JE	L2
    60 0000000D 68 [00000014]                   	PUSH	LC0
    61 00000012 E8 000005D3                     	CALL	_print_string
    62 00000017                                 L1:
    63 00000017 8B 5D FC                        	MOV	EBX,DWORD [-4+EBP]
    64 0000001A C9                              	LEAVE
    65 0000001B C3                              	RET
    66 0000001C                                 L2:
    67 0000001C 31 DB                           	XOR	EBX,EBX
    68 0000001E 3B 1D [000001A0]                	CMP	EBX,DWORD [_cols]
    69 00000024 7C 2A                           	JL	L7
    70 00000026                                 L9:
    71 00000026 C7 05 [0000000C] FFFFFFFF       	MOV	DWORD [_yc],-1
    72 00000030 C7 05 [00000008] FFFFFFFF       	MOV	DWORD [_xc],-1
    73 0000003A C7 05 [00000004] FFFFFFFF       	MOV	DWORD [_y],-1
    74 00000044 C7 05 [00000000] FFFFFFFF       	MOV	DWORD [_x],-1
    75 0000004E EB C7                           	JMP	L1
    76 00000050                                 L7:
    77 00000050 6A 00                           	PUSH	0
    78 00000052 43                              	INC	EBX
    79 00000053 E8 00000335                     	CALL	_new_line
    80 00000058 3B 1D [000001A0]                	CMP	EBX,DWORD [_cols]
    81 0000005E 58                              	POP	EAX
    82 0000005F 7C EF                           	JL	L7
    83 00000061 EB C3                           	JMP	L9
    84                                          [SECTION .data]
    85 00000027                                 LC1:
    86 00000027 55 73 61 67 65 3A 20 6D 2F 6D   	DB	"Usage: m/mem/memory",0x00
       00000031 65 6D 2F 6D 65 6D 6F 72 79 00 
    87 0000003B                                 LC2:
    88 0000003B 6D 65 6D 20 20 3A 20 20 25 34   	DB	"mem  :  %4d / %4d MB       usage:  %2d.%02d %%",0x00
       00000045 64 20 2F 20 25 34 64 20 4D 42 
       0000004F 20 20 20 20 20 20 20 75 73 61 
       00000059 67 65 3A 20 20 25 32 64 2E 25 
       00000063 30 32 64 20 25 25 00 
    89 0000006A                                 LC3:
    90 0000006A 73 62 72 6B 20 3A 20 20 30 78   	DB	"sbrk :  0x%08x",0x00
       00000074 25 30 38 78 00 
    91 00000079                                 LC4:
    92 00000079 20 2D 75 20 20 3A 20 20 25 34   	DB	" -u  :  %4d MB              -f   :  %4d MB",0x00
       00000083 64 20 4D 42 20 20 20 20 20 20 
       0000008D 20 20 20 20 20 20 20 20 2D 66 
       00000097 20 20 20 3A 20 20 25 34 64 20 
       000000A1 4D 42 00 
    93                                          [SECTION .text]
    94 00000063                                 _cmd_mem:
    95 00000063 55                              	PUSH	EBP
    96 00000064 89 E5                           	MOV	EBP,ESP
    97 00000066 57                              	PUSH	EDI
    98 00000067 56                              	PUSH	ESI
    99 00000068 53                              	PUSH	EBX
   100 00000069 83 EC 48                        	SUB	ESP,72
   101 0000006C E8 [00000000]                   	CALL	_mm_total
   102 00000071 89 C3                           	MOV	EBX,EAX
   103 00000073 E8 [00000000]                   	CALL	_mm_total
   104 00000078 C1 EB 14                        	SHR	EBX,20
   105 0000007B 89 C6                           	MOV	ESI,EAX
   106 0000007D C1 EE 14                        	SHR	ESI,20
   107 00000080 E8 [00000000]                   	CALL	_mm_check
   108 00000085 C1 E8 14                        	SHR	EAX,20
   109 00000088 29 C6                           	SUB	ESI,EAX
   110 0000008A E8 [00000000]                   	CALL	_mm_sbrk
   111 0000008F 89 DA                           	MOV	EDX,EBX
   112 00000091 D1 FA                           	SAR	EDX,1
   113 00000093 89 45 B0                        	MOV	DWORD [-80+EBP],EAX
   114 00000096 89 F0                           	MOV	EAX,ESI
   115 00000098 69 C0 00002710                  	IMUL	EAX,EAX,10000
   116 0000009E 8D 14 02                        	LEA	EDX,DWORD [EDX+EAX*1]
   117 000000A1 89 D0                           	MOV	EAX,EDX
   118 000000A3 99                              	CDQ
   119 000000A4 F7 FB                           	IDIV	EBX
   120 000000A6 83 3D [00000234] 01             	CMP	DWORD [_argc],1
   121 000000AD 89 45 AC                        	MOV	DWORD [-84+EBP],EAX
   122 000000B0 74 12                           	JE	L11
   123 000000B2 68 [00000027]                   	PUSH	LC1
   124 000000B7                                 L12:
   125 000000B7 E8 0000052E                     	CALL	_print_string
   126 000000BC 8D 65 F4                        	LEA	ESP,DWORD [-12+EBP]
   127 000000BF 5B                              	POP	EBX
   128 000000C0 5E                              	POP	ESI
   129 000000C1 5F                              	POP	EDI
   130 000000C2 5D                              	POP	EBP
   131 000000C3 C3                              	RET
   132 000000C4                                 L11:
   133 000000C4 8B 45 AC                        	MOV	EAX,DWORD [-84+EBP]
   134 000000C7 BA 00000064                     	MOV	EDX,100
   135 000000CC 89 D7                           	MOV	EDI,EDX
   136 000000CE 99                              	CDQ
   137 000000CF F7 FF                           	IDIV	EDI
   138 000000D1 52                              	PUSH	EDX
   139 000000D2 8D 7D B4                        	LEA	EDI,DWORD [-76+EBP]
   140 000000D5 50                              	PUSH	EAX
   141 000000D6 53                              	PUSH	EBX
   142 000000D7 56                              	PUSH	ESI
   143 000000D8 68 [0000003B]                   	PUSH	LC2
   144 000000DD 57                              	PUSH	EDI
   145 000000DE E8 [00000000]                   	CALL	_sprintf
   146 000000E3 57                              	PUSH	EDI
   147 000000E4 E8 00000501                     	CALL	_print_string
   148 000000E9 FF 75 B0                        	PUSH	DWORD [-80+EBP]
   149 000000EC 68 [0000006A]                   	PUSH	LC3
   150 000000F1 57                              	PUSH	EDI
   151 000000F2 E8 [00000000]                   	CALL	_sprintf
   152 000000F7 83 C4 28                        	ADD	ESP,40
   153 000000FA 57                              	PUSH	EDI
   154 000000FB E8 000004EA                     	CALL	_print_string
   155 00000100 E8 [00000000]                   	CALL	_mm_check
   156 00000105 89 C6                           	MOV	ESI,EAX
   157 00000107 E8 [00000000]                   	CALL	_mm_total
   158 0000010C C1 EE 14                        	SHR	ESI,20
   159 0000010F 89 C3                           	MOV	EBX,EAX
   160 00000111 E8 [00000000]                   	CALL	_mm_sbrk
   161 00000116 29 C3                           	SUB	EBX,EAX
   162 00000118 C1 EB 14                        	SHR	EBX,20
   163 0000011B 29 DE                           	SUB	ESI,EBX
   164 0000011D 56                              	PUSH	ESI
   165 0000011E E8 [00000000]                   	CALL	_mm_total
   166 00000123 2B 45 B0                        	SUB	EAX,DWORD [-80+EBP]
   167 00000126 C1 E8 14                        	SHR	EAX,20
   168 00000129 50                              	PUSH	EAX
   169 0000012A 68 [00000079]                   	PUSH	LC4
   170 0000012F 57                              	PUSH	EDI
   171 00000130 E8 [00000000]                   	CALL	_sprintf
   172 00000135 57                              	PUSH	EDI
   173 00000136 E9 FFFFFF7C                     	JMP	L12
   174                                          [SECTION .data]
   175 000000A4                                 LC5:
   176 000000A4 55 73 61 67 65 3A 20 6C 73 2F   	DB	"Usage: ls/dir",0x00
       000000AE 64 69 72 00 
   177 000000B2                                 LC6:
   178 000000B2 66 69 6C 65 6E 61 6D 65 2E 65   	DB	"filename.ext  %6d B",0x00
       000000BC 78 74 20 20 25 36 64 20 42 00 
   179 000000C6                                 LC7:
   180 000000C6 66 69 6C 65 6E 61 6D 65 2E 65   	DB	"filename.ext  %6d KB",0x00
       000000D0 78 74 20 20 25 36 64 20 4B 42 
       000000DA 00 
   181                                          [SECTION .text]
   182 0000013B                                 _cmd_ls:
   183 0000013B 55                              	PUSH	EBP
   184 0000013C 89 E5                           	MOV	EBP,ESP
   185 0000013E 56                              	PUSH	ESI
   186 0000013F 53                              	PUSH	EBX
   187 00000140 83 EC 20                        	SUB	ESP,32
   188 00000143 83 3D [00000234] 01             	CMP	DWORD [_argc],1
   189 0000014A 74 11                           	JE	L14
   190 0000014C 68 [000000A4]                   	PUSH	LC5
   191 00000151 E8 00000494                     	CALL	_print_string
   192 00000156                                 L13:
   193 00000156 8D 65 F8                        	LEA	ESP,DWORD [-8+EBP]
   194 00000159 5B                              	POP	EBX
   195 0000015A 5E                              	POP	ESI
   196 0000015B 5D                              	POP	EBP
   197 0000015C C3                              	RET
   198 0000015D                                 L14:
   199 0000015D 31 DB                           	XOR	EBX,EBX
   200 0000015F BE 000000DF                     	MOV	ESI,223
   201 00000164                                 L29:
   202 00000164 8A 83 00102600                  	MOV	AL,BYTE [1058304+EBX]
   203 0000016A 84 C0                           	TEST	AL,AL
   204 0000016C 74 6F                           	JE	L17
   205 0000016E 3C E5                           	CMP	AL,-27
   206 00000170 74 6B                           	JE	L17
   207 00000172 F6 83 0010260B 18               	TEST	BYTE [1058315+EBX],24
   208 00000179 75 62                           	JNE	L17
   209 0000017B 8B 83 0010261C                  	MOV	EAX,DWORD [1058332+EBX]
   210 00000181 8D 90 00000200                  	LEA	EDX,DWORD [512+EAX]
   211 00000187 C1 EA 0A                        	SHR	EDX,10
   212 0000018A 3D 000003FF                     	CMP	EAX,1023
   213 0000018F 77 5B                           	JA	L22
   214 00000191 50                              	PUSH	EAX
   215 00000192 68 [000000B2]                   	PUSH	LC6
   216 00000197                                 L33:
   217 00000197 8D 45 D8                        	LEA	EAX,DWORD [-40+EBP]
   218 0000019A 50                              	PUSH	EAX
   219 0000019B E8 [00000000]                   	CALL	_sprintf
   220 000001A0 8D 93 00102600                  	LEA	EDX,DWORD [1058304+EBX]
   221 000001A6 83 C4 0C                        	ADD	ESP,12
   222 000001A9 31 C9                           	XOR	ECX,ECX
   223 000001AB                                 L28:
   224 000001AB 8A 02                           	MOV	AL,BYTE [EDX]
   225 000001AD 42                              	INC	EDX
   226 000001AE 88 44 0D D8                     	MOV	BYTE [-40+EBP+ECX*1],AL
   227 000001B2 41                              	INC	ECX
   228 000001B3 83 F9 07                        	CMP	ECX,7
   229 000001B6 7E F3                           	JLE	L28
   230 000001B8 8A 83 00102608                  	MOV	AL,BYTE [1058312+EBX]
   231 000001BE 88 45 E1                        	MOV	BYTE [-31+EBP],AL
   232 000001C1 8A 83 00102609                  	MOV	AL,BYTE [1058313+EBX]
   233 000001C7 88 45 E2                        	MOV	BYTE [-30+EBP],AL
   234 000001CA 8A 83 0010260A                  	MOV	AL,BYTE [1058314+EBX]
   235 000001D0 88 45 E3                        	MOV	BYTE [-29+EBP],AL
   236 000001D3 8D 45 D8                        	LEA	EAX,DWORD [-40+EBP]
   237 000001D6 50                              	PUSH	EAX
   238 000001D7 E8 0000040E                     	CALL	_print_string
   239 000001DC 5A                              	POP	EDX
   240 000001DD                                 L17:
   241 000001DD 83 C3 20                        	ADD	EBX,32
   242 000001E0 4E                              	DEC	ESI
   243 000001E1 0F 89 FFFFFF7D                  	JNS	L29
   244 000001E7 E9 FFFFFF6A                     	JMP	L13
   245 000001EC                                 L22:
   246 000001EC 52                              	PUSH	EDX
   247 000001ED 68 [000000C6]                   	PUSH	LC7
   248 000001F2 EB A3                           	JMP	L33
   249                                          [SECTION .data]
   250 000000DB                                 LC8:
   251 000000DB 55 73 61 67 65 3A 20 63 61 74   	DB	"Usage: cat/type [filename]",0x00
       000000E5 2F 74 79 70 65 20 5B 66 69 6C 
       000000EF 65 6E 61 6D 65 5D 00 
   252 000000F6                                 LC9:
   253 000000F6 46 69 6C 65 20 4E 6F 74 20 46   	DB	"File Not Found",0x00
       00000100 6F 75 6E 64 00 
   254                                          [SECTION .text]
   255 000001F4                                 _cmd_type:
   256 000001F4 55                              	PUSH	EBP
   257 000001F5 31 C0                           	XOR	EAX,EAX
   258 000001F7 89 E5                           	MOV	EBP,ESP
   259 000001F9 B9 0000000D                     	MOV	ECX,13
   260 000001FE 57                              	PUSH	EDI
   261 000001FF 56                              	PUSH	ESI
   262 00000200 8D 7D E4                        	LEA	EDI,DWORD [-28+EBP]
   263 00000203 FC                              	CLD
   264 00000204 53                              	PUSH	EBX
   265 00000205 83 EC 18                        	SUB	ESP,24
   266 00000208 F3                              	REP
   267 00000209 AA                              	STOSB
   268 0000020A 83 3D [00000234] 02             	CMP	DWORD [_argc],2
   269 00000211 74 12                           	JE	L35
   270 00000213 68 [000000DB]                   	PUSH	LC8
   271 00000218                                 L80:
   272 00000218 E8 000003CD                     	CALL	_print_string
   273 0000021D                                 L34:
   274 0000021D 8D 65 F4                        	LEA	ESP,DWORD [-12+EBP]
   275 00000220 5B                              	POP	EBX
   276 00000221 5E                              	POP	ESI
   277 00000222 5F                              	POP	EDI
   278 00000223 5D                              	POP	EBP
   279 00000224 C3                              	RET
   280 00000225                                 L35:
   281 00000225 FF 35 [000001B4]                	PUSH	DWORD [_arg_buf+4]
   282 0000022B E8 00000467                     	CALL	_str_uppercase
   283 00000230 5B                              	POP	EBX
   284 00000231 C7 45 DC 00000000               	MOV	DWORD [-36+EBP],0
   285 00000238                                 L71:
   286 00000238 8B 55 DC                        	MOV	EDX,DWORD [-36+EBP]
   287 0000023B C1 E2 05                        	SAL	EDX,5
   288 0000023E 8A 82 00102600                  	MOV	AL,BYTE [1058304+EDX]
   289 00000244 84 C0                           	TEST	AL,AL
   290 00000246 0F 84 00000080                  	JE	L38
   291 0000024C 3C E5                           	CMP	AL,-27
   292 0000024E 74 7C                           	JE	L38
   293 00000250 F6 82 0010260B 18               	TEST	BYTE [1058315+EDX],24
   294 00000257 75 73                           	JNE	L38
   295 00000259 31 DB                           	XOR	EBX,EBX
   296 0000025B                                 L47:
   297 0000025B C6 44 1D E4 00                  	MOV	BYTE [-28+EBP+EBX*1],0
   298 00000260 43                              	INC	EBX
   299 00000261 83 FB 0C                        	CMP	EBX,12
   300 00000264 7E F5                           	JLE	L47
   301 00000266 31 DB                           	XOR	EBX,EBX
   302 00000268                                 L54:
   303 00000268 8B 7D DC                        	MOV	EDI,DWORD [-36+EBP]
   304 0000026B C1 E7 05                        	SAL	EDI,5
   305 0000026E 8A 84 1F 00102600               	MOV	AL,BYTE [1058304+EDI+EBX*1]
   306 00000275 3C 20                           	CMP	AL,32
   307 00000277 74 0A                           	JE	L49
   308 00000279 88 44 1D E4                     	MOV	BYTE [-28+EBP+EBX*1],AL
   309 0000027D 43                              	INC	EBX
   310 0000027E 83 FB 07                        	CMP	EBX,7
   311 00000281 7E E5                           	JLE	L54
   312 00000283                                 L49:
   313 00000283 80 BF 00102608 20               	CMP	BYTE [1058312+EDI],32
   314 0000028A 74 0F                           	JE	L55
   315 0000028C C6 44 1D E4 2E                  	MOV	BYTE [-28+EBP+EBX*1],46
   316 00000291 8A 87 00102608                  	MOV	AL,BYTE [1058312+EDI]
   317 00000297 88 44 1D E5                     	MOV	BYTE [-27+EBP+EBX*1],AL
   318 0000029B                                 L55:
   319 0000029B 8A 87 00102609                  	MOV	AL,BYTE [1058313+EDI]
   320 000002A1 3C 20                           	CMP	AL,32
   321 000002A3 74 04                           	JE	L56
   322 000002A5 88 44 1D E6                     	MOV	BYTE [-26+EBP+EBX*1],AL
   323 000002A9                                 L56:
   324 000002A9 8A 87 0010260A                  	MOV	AL,BYTE [1058314+EDI]
   325 000002AF 3C 20                           	CMP	AL,32
   326 000002B1 74 04                           	JE	L57
   327 000002B3 88 44 1D E7                     	MOV	BYTE [-25+EBP+EBX*1],AL
   328 000002B7                                 L57:
   329 000002B7 8D 45 E4                        	LEA	EAX,DWORD [-28+EBP]
   330 000002BA 50                              	PUSH	EAX
   331 000002BB FF 35 [000001B4]                	PUSH	DWORD [_arg_buf+4]
   332 000002C1 E8 000003A4                     	CALL	_str_cmp
   333 000002C6 5A                              	POP	EDX
   334 000002C7 59                              	POP	ECX
   335 000002C8 84 C0                           	TEST	AL,AL
   336 000002CA 75 1A                           	JNE	L81
   337 000002CC                                 L38:
   338 000002CC FF 45 DC                        	INC	DWORD [-36+EBP]
   339 000002CF 81 7D DC 000000DF               	CMP	DWORD [-36+EBP],223
   340 000002D6 0F 8E FFFFFF5C                  	JLE	L71
   341 000002DC 68 [000000F6]                   	PUSH	LC9
   342 000002E1 E9 FFFFFF32                     	JMP	L80
   343 000002E6                                 L81:
   344 000002E6 8B 9F 0010261C                  	MOV	EBX,DWORD [1058332+EDI]
   345 000002EC 68 00002D00                     	PUSH	11520
   346 000002F1 E8 [00000000]                   	CALL	_mm_malloc
   347 000002F6 68 00100200                     	PUSH	1049088
   348 000002FB 50                              	PUSH	EAX
   349 000002FC 89 45 E0                        	MOV	DWORD [-32+EBP],EAX
   350 000002FF E8 [00000000]                   	CALL	_file_readfat
   351 00000304 53                              	PUSH	EBX
   352 00000305 E8 [00000000]                   	CALL	_mm_malloc
   353 0000030A 68 00103E00                     	PUSH	1064448
   354 0000030F FF 75 E0                        	PUSH	DWORD [-32+EBP]
   355 00000312 50                              	PUSH	EAX
   356 00000313 89 C6                           	MOV	ESI,EAX
   357 00000315 53                              	PUSH	EBX
   358 00000316 0F B7 87 0010261A               	MOVZX	EAX,WORD [1058330+EDI]
   359 0000031D 50                              	PUSH	EAX
   360 0000031E E8 [00000000]                   	CALL	_file_loadfile
   361 00000323 83 C4 24                        	ADD	ESP,36
   362 00000326 6A 00                           	PUSH	0
   363 00000328 E8 00000060                     	CALL	_new_line
   364 0000032D 58                              	POP	EAX
   365 0000032E C7 45 DC 00000000               	MOV	DWORD [-36+EBP],0
   366 00000335 39 5D DC                        	CMP	DWORD [-36+EBP],EBX
   367 00000338 7D 24                           	JGE	L78
   368 0000033A                                 L70:
   369 0000033A 8B 55 DC                        	MOV	EDX,DWORD [-36+EBP]
   370 0000033D 8A 04 32                        	MOV	AL,BYTE [EDX+ESI*1]
   371 00000340 3C 0D                           	CMP	AL,13
   372 00000342 74 12                           	JE	L61
   373 00000344 3C 0A                           	CMP	AL,10
   374 00000346 74 3C                           	JE	L82
   375 00000348 3C 09                           	CMP	AL,9
   376 0000034A 74 25                           	JE	L66
   377 0000034C 0F BE C0                        	MOVSX	EAX,AL
   378 0000034F 50                              	PUSH	EAX
   379 00000350 E8 00000193                     	CALL	_new_char
   380 00000355                                 L79:
   381 00000355 59                              	POP	ECX
   382 00000356                                 L61:
   383 00000356 FF 45 DC                        	INC	DWORD [-36+EBP]
   384 00000359 39 5D DC                        	CMP	DWORD [-36+EBP],EBX
   385 0000035C 7C DC                           	JL	L70
   386 0000035E                                 L78:
   387 0000035E FF 75 E0                        	PUSH	DWORD [-32+EBP]
   388 00000361 E8 [00000000]                   	CALL	_mm_free
   389 00000366 56                              	PUSH	ESI
   390 00000367 E8 [00000000]                   	CALL	_mm_free
   391 0000036C E9 FFFFFEAC                     	JMP	L34
   392 00000371                                 L66:
   393 00000371 6A 20                           	PUSH	32
   394 00000373 E8 00000170                     	CALL	_new_char
   395 00000378 F6 05 [00000000] 03             	TEST	BYTE [_x],3
   396 0000037F 5F                              	POP	EDI
   397 00000380 75 EF                           	JNE	L66
   398 00000382 EB D2                           	JMP	L61
   399 00000384                                 L82:
   400 00000384 6A 00                           	PUSH	0
   401 00000386 E8 00000002                     	CALL	_new_line
   402 0000038B EB C8                           	JMP	L79
   403                                          [SECTION .data]
   404 00000105                                 LC10:
   405 00000105 43 00                           	DB	"C",0x00
   406 00000107                                 LC11:
   407 00000107 43 4C 53 00                     	DB	"CLS",0x00
   408 0000010B                                 LC12:
   409 0000010B 43 4C 45 41 52 00               	DB	"CLEAR",0x00
   410 00000111                                 LC13:
   411 00000111 4D 00                           	DB	"M",0x00
   412 00000113                                 LC14:
   413 00000113 4D 45 4D 00                     	DB	"MEM",0x00
   414 00000117                                 LC15:
   415 00000117 4D 45 4D 4F 52 59 00            	DB	"MEMORY",0x00
   416 0000011E                                 LC16:
   417 0000011E 4C 53 00                        	DB	"LS",0x00
   418 00000121                                 LC17:
   419 00000121 44 49 52 00                     	DB	"DIR",0x00
   420 00000125                                 LC18:
   421 00000125 54 59 50 45 00                  	DB	"TYPE",0x00
   422 0000012A                                 LC19:
   423 0000012A 43 41 54 00                     	DB	"CAT",0x00
   424 0000012E                                 _buildin_cmd:
   425 0000012E [00000105]                      	DD	LC10
   426 00000132 [00000107]                      	DD	LC11
   427 00000136 [0000010B]                      	DD	LC12
   428 0000013A [00000111]                      	DD	LC13
   429 0000013E [00000113]                      	DD	LC14
   430 00000142 [00000117]                      	DD	LC15
   431 00000146 [0000011E]                      	DD	LC16
   432 0000014A [00000121]                      	DD	LC17
   433 0000014E [00000125]                      	DD	LC18
   434 00000152 [0000012A]                      	DD	LC19
   435 00000156                                 _buildin_cmd_addr:
   436 00000156 [00000000]                      	DD	_cmd_cls
   437 0000015A [00000000]                      	DD	_cmd_cls
   438 0000015E [00000000]                      	DD	_cmd_cls
   439 00000162 [00000063]                      	DD	_cmd_mem
   440 00000166 [00000063]                      	DD	_cmd_mem
   441 0000016A [00000063]                      	DD	_cmd_mem
   442 0000016E [0000013B]                      	DD	_cmd_ls
   443 00000172 [0000013B]                      	DD	_cmd_ls
   444 00000176 [000001F4]                      	DD	_cmd_type
   445 0000017A [000001F4]                      	DD	_cmd_type
   446                                          [SECTION .text]
   447 0000038D                                 _new_line:
   448 0000038D 55                              	PUSH	EBP
   449 0000038E A1 [00000004]                   	MOV	EAX,DWORD [_y]
   450 00000393 89 E5                           	MOV	EBP,ESP
   451 00000395 40                              	INC	EAX
   452 00000396 53                              	PUSH	EBX
   453 00000397 FF 05 [0000000C]                	INC	DWORD [_yc]
   454 0000039D 8A 5D 08                        	MOV	BL,BYTE [8+EBP]
   455 000003A0 A3 [00000004]                   	MOV	DWORD [_y],EAX
   456 000003A5 C7 05 [00000000] 00000000       	MOV	DWORD [_x],0
   457 000003AF C7 05 [00000008] 00000000       	MOV	DWORD [_xc],0
   458 000003B9 3B 05 [000001A4]                	CMP	EAX,DWORD [_rows]
   459 000003BF 0F 84 0000010A                  	JE	L86
   460 000003C5                                 L84:
   461 000003C5 8B 15 [00000004]                	MOV	EDX,DWORD [_y]
   462 000003CB 8B 0D [00000198]                	MOV	ECX,DWORD [_width]
   463 000003D1 C1 E2 04                        	SAL	EDX,4
   464 000003D4 8D 42 25                        	LEA	EAX,DWORD [37+EDX]
   465 000003D7 83 C2 16                        	ADD	EDX,22
   466 000003DA 50                              	PUSH	EAX
   467 000003DB 8D 41 FC                        	LEA	EAX,DWORD [-4+ECX]
   468 000003DE 50                              	PUSH	EAX
   469 000003DF 52                              	PUSH	EDX
   470 000003E0 6A 03                           	PUSH	3
   471 000003E2 6A 00                           	PUSH	0
   472 000003E4 51                              	PUSH	ECX
   473 000003E5 FF 35 [00000310]                	PUSH	DWORD [_buf_window]
   474 000003EB E8 [00000000]                   	CALL	_draw_rect
   475 000003F0 8B 15 [00000004]                	MOV	EDX,DWORD [_y]
   476 000003F6 C1 E2 04                        	SAL	EDX,4
   477 000003F9 6A 00                           	PUSH	0
   478 000003FB 8D 42 26                        	LEA	EAX,DWORD [38+EDX]
   479 000003FE 83 C2 16                        	ADD	EDX,22
   480 00000401 50                              	PUSH	EAX
   481 00000402 A1 [00000198]                   	MOV	EAX,DWORD [_width]
   482 00000407 83 E8 03                        	SUB	EAX,3
   483 0000040A 50                              	PUSH	EAX
   484 0000040B 52                              	PUSH	EDX
   485 0000040C 6A 03                           	PUSH	3
   486 0000040E FF 35 [0000030C]                	PUSH	DWORD [_sht_window]
   487 00000414 E8 [00000000]                   	CALL	_sheet_refresh
   488 00000419 83 C4 34                        	ADD	ESP,52
   489 0000041C 84 DB                           	TEST	BL,BL
   490 0000041E 75 05                           	JNE	L87
   491 00000420                                 L83:
   492 00000420 8B 5D FC                        	MOV	EBX,DWORD [-4+EBP]
   493 00000423 C9                              	LEAVE
   494 00000424 C3                              	RET
   495 00000425                                 L87:
   496 00000425 8B 0D [00000004]                	MOV	ECX,DWORD [_y]
   497 0000042B FF 05 [00000008]                	INC	DWORD [_xc]
   498 00000431 C1 E1 04                        	SAL	ECX,4
   499 00000434 8D 41 25                        	LEA	EAX,DWORD [37+ECX]
   500 00000437 83 C1 16                        	ADD	ECX,22
   501 0000043A 50                              	PUSH	EAX
   502 0000043B A1 [00000000]                   	MOV	EAX,DWORD [_x]
   503 00000440 C1 E0 03                        	SAL	EAX,3
   504 00000443 8D 50 0A                        	LEA	EDX,DWORD [10+EAX]
   505 00000446 83 C0 03                        	ADD	EAX,3
   506 00000449 52                              	PUSH	EDX
   507 0000044A 51                              	PUSH	ECX
   508 0000044B 50                              	PUSH	EAX
   509 0000044C 6A 00                           	PUSH	0
   510 0000044E FF 35 [00000198]                	PUSH	DWORD [_width]
   511 00000454 FF 35 [00000310]                	PUSH	DWORD [_buf_window]
   512 0000045A E8 [00000000]                   	CALL	_draw_rect
   513 0000045F A1 [00000004]                   	MOV	EAX,DWORD [_y]
   514 00000464 C1 E0 04                        	SAL	EAX,4
   515 00000467 68 [000003E0]                   	PUSH	_hankaku+992
   516 0000046C 83 C0 16                        	ADD	EAX,22
   517 0000046F 50                              	PUSH	EAX
   518 00000470 A1 [00000000]                   	MOV	EAX,DWORD [_x]
   519 00000475 8D 04 C5 00000003               	LEA	EAX,DWORD [3+EAX*8]
   520 0000047C 50                              	PUSH	EAX
   521 0000047D 6A 02                           	PUSH	2
   522 0000047F FF 35 [00000198]                	PUSH	DWORD [_width]
   523 00000485 FF 35 [00000310]                	PUSH	DWORD [_buf_window]
   524 0000048B E8 [00000000]                   	CALL	_draw_char
   525 00000490 8B 0D [00000004]                	MOV	ECX,DWORD [_y]
   526 00000496 C1 E1 04                        	SAL	ECX,4
   527 00000499 83 C4 34                        	ADD	ESP,52
   528 0000049C 8D 41 26                        	LEA	EAX,DWORD [38+ECX]
   529 0000049F 6A 00                           	PUSH	0
   530 000004A1 50                              	PUSH	EAX
   531 000004A2 83 C1 16                        	ADD	ECX,22
   532 000004A5 A1 [00000000]                   	MOV	EAX,DWORD [_x]
   533 000004AA C1 E0 03                        	SAL	EAX,3
   534 000004AD 8D 50 0B                        	LEA	EDX,DWORD [11+EAX]
   535 000004B0 83 C0 03                        	ADD	EAX,3
   536 000004B3 52                              	PUSH	EDX
   537 000004B4 51                              	PUSH	ECX
   538 000004B5 50                              	PUSH	EAX
   539 000004B6 FF 35 [0000030C]                	PUSH	DWORD [_sht_window]
   540 000004BC E8 [00000000]                   	CALL	_sheet_refresh
   541 000004C1 83 C4 18                        	ADD	ESP,24
   542 000004C4 FF 05 [00000000]                	INC	DWORD [_x]
   543 000004CA E9 FFFFFF51                     	JMP	L83
   544 000004CF                                 L86:
   545 000004CF C7 05 [00000004] 00000000       	MOV	DWORD [_y],0
   546 000004D9 C7 05 [0000000C] 00000000       	MOV	DWORD [_yc],0
   547 000004E3 E9 FFFFFEDD                     	JMP	L84
   548 000004E8                                 _new_char:
   549 000004E8 55                              	PUSH	EBP
   550 000004E9 89 E5                           	MOV	EBP,ESP
   551 000004EB 53                              	PUSH	EBX
   552 000004EC 8B 0D [0000000C]                	MOV	ECX,DWORD [_yc]
   553 000004F2 C1 E1 04                        	SAL	ECX,4
   554 000004F5 0F BE 5D 08                     	MOVSX	EBX,BYTE [8+EBP]
   555 000004F9 C1 E3 04                        	SAL	EBX,4
   556 000004FC 8D 41 25                        	LEA	EAX,DWORD [37+ECX]
   557 000004FF 50                              	PUSH	EAX
   558 00000500 83 C1 16                        	ADD	ECX,22
   559 00000503 A1 [00000008]                   	MOV	EAX,DWORD [_xc]
   560 00000508 81 C3 [00000000]                	ADD	EBX,_hankaku
   561 0000050E C1 E0 03                        	SAL	EAX,3
   562 00000511 8D 50 0A                        	LEA	EDX,DWORD [10+EAX]
   563 00000514 83 C0 03                        	ADD	EAX,3
   564 00000517 52                              	PUSH	EDX
   565 00000518 51                              	PUSH	ECX
   566 00000519 50                              	PUSH	EAX
   567 0000051A 6A 00                           	PUSH	0
   568 0000051C FF 35 [00000198]                	PUSH	DWORD [_width]
   569 00000522 FF 35 [00000310]                	PUSH	DWORD [_buf_window]
   570 00000528 E8 [00000000]                   	CALL	_draw_rect
   571 0000052D 6A 00                           	PUSH	0
   572 0000052F 8B 0D [0000000C]                	MOV	ECX,DWORD [_yc]
   573 00000535 C1 E1 04                        	SAL	ECX,4
   574 00000538 8D 41 26                        	LEA	EAX,DWORD [38+ECX]
   575 0000053B 83 C1 16                        	ADD	ECX,22
   576 0000053E 50                              	PUSH	EAX
   577 0000053F A1 [00000008]                   	MOV	EAX,DWORD [_xc]
   578 00000544 C1 E0 03                        	SAL	EAX,3
   579 00000547 8D 50 0B                        	LEA	EDX,DWORD [11+EAX]
   580 0000054A 83 C0 03                        	ADD	EAX,3
   581 0000054D 52                              	PUSH	EDX
   582 0000054E 51                              	PUSH	ECX
   583 0000054F 50                              	PUSH	EAX
   584 00000550 FF 35 [0000030C]                	PUSH	DWORD [_sht_window]
   585 00000556 E8 [00000000]                   	CALL	_sheet_refresh
   586 0000055B 83 C4 34                        	ADD	ESP,52
   587 0000055E FF 05 [00000008]                	INC	DWORD [_xc]
   588 00000564 53                              	PUSH	EBX
   589 00000565 A1 [00000004]                   	MOV	EAX,DWORD [_y]
   590 0000056A C1 E0 04                        	SAL	EAX,4
   591 0000056D 83 C0 16                        	ADD	EAX,22
   592 00000570 50                              	PUSH	EAX
   593 00000571 A1 [00000000]                   	MOV	EAX,DWORD [_x]
   594 00000576 8D 04 C5 00000003               	LEA	EAX,DWORD [3+EAX*8]
   595 0000057D 50                              	PUSH	EAX
   596 0000057E 6A 02                           	PUSH	2
   597 00000580 FF 35 [00000198]                	PUSH	DWORD [_width]
   598 00000586 FF 35 [00000310]                	PUSH	DWORD [_buf_window]
   599 0000058C E8 [00000000]                   	CALL	_draw_char
   600 00000591 6A 00                           	PUSH	0
   601 00000593 8B 0D [00000004]                	MOV	ECX,DWORD [_y]
   602 00000599 C1 E1 04                        	SAL	ECX,4
   603 0000059C 8D 41 26                        	LEA	EAX,DWORD [38+ECX]
   604 0000059F 83 C1 16                        	ADD	ECX,22
   605 000005A2 50                              	PUSH	EAX
   606 000005A3 A1 [00000000]                   	MOV	EAX,DWORD [_x]
   607 000005A8 C1 E0 03                        	SAL	EAX,3
   608 000005AB 8D 50 0B                        	LEA	EDX,DWORD [11+EAX]
   609 000005AE 83 C0 03                        	ADD	EAX,3
   610 000005B1 52                              	PUSH	EDX
   611 000005B2 51                              	PUSH	ECX
   612 000005B3 50                              	PUSH	EAX
   613 000005B4 FF 35 [0000030C]                	PUSH	DWORD [_sht_window]
   614 000005BA E8 [00000000]                   	CALL	_sheet_refresh
   615 000005BF 83 C4 30                        	ADD	ESP,48
   616 000005C2 A1 [00000000]                   	MOV	EAX,DWORD [_x]
   617 000005C7 40                              	INC	EAX
   618 000005C8 A3 [00000000]                   	MOV	DWORD [_x],EAX
   619 000005CD 3B 05 [000001A0]                	CMP	EAX,DWORD [_cols]
   620 000005D3 74 05                           	JE	L90
   621 000005D5 8B 5D FC                        	MOV	EBX,DWORD [-4+EBP]
   622 000005D8 C9                              	LEAVE
   623 000005D9 C3                              	RET
   624 000005DA                                 L90:
   625 000005DA C7 45 08 00000000               	MOV	DWORD [8+EBP],0
   626 000005E1 8B 5D FC                        	MOV	EBX,DWORD [-4+EBP]
   627 000005E4 C9                              	LEAVE
   628 000005E5 E9 FFFFFDA3                     	JMP	_new_line
   629 000005EA                                 _print_string:
   630 000005EA 55                              	PUSH	EBP
   631 000005EB 89 E5                           	MOV	EBP,ESP
   632 000005ED 53                              	PUSH	EBX
   633 000005EE 6A 00                           	PUSH	0
   634 000005F0 8B 5D 08                        	MOV	EBX,DWORD [8+EBP]
   635 000005F3 E8 FFFFFD95                     	CALL	_new_line
   636 000005F8 58                              	POP	EAX
   637 000005F9 80 3B 00                        	CMP	BYTE [EBX],0
   638 000005FC 75 05                           	JNE	L95
   639 000005FE                                 L97:
   640 000005FE 8B 5D FC                        	MOV	EBX,DWORD [-4+EBP]
   641 00000601 C9                              	LEAVE
   642 00000602 C3                              	RET
   643 00000603                                 L95:
   644 00000603 0F BE 03                        	MOVSX	EAX,BYTE [EBX]
   645 00000606 43                              	INC	EBX
   646 00000607 50                              	PUSH	EAX
   647 00000608 E8 FFFFFEDB                     	CALL	_new_char
   648 0000060D 58                              	POP	EAX
   649 0000060E 80 3B 00                        	CMP	BYTE [EBX],0
   650 00000611 75 F0                           	JNE	L95
   651 00000613 EB E9                           	JMP	L97
   652 00000615                                 _parse_cmd:
   653 00000615 55                              	PUSH	EBP
   654 00000616 BA [00000240]                   	MOV	EDX,_cmd_buf
   655 0000061B 89 E5                           	MOV	EBP,ESP
   656 0000061D B9 [000001B0]                   	MOV	ECX,_arg_buf
   657 00000622 53                              	PUSH	EBX
   658 00000623 31 DB                           	XOR	EBX,EBX
   659 00000625                                 L114:
   660 00000625 80 3A 20                        	CMP	BYTE [EDX],32
   661 00000628 74 35                           	JE	L105
   662 0000062A                                 L118:
   663 0000062A 8A 02                           	MOV	AL,BYTE [EDX]
   664 0000062C 3C 0A                           	CMP	AL,10
   665 0000062E 74 2C                           	JE	L98
   666 00000630 84 C0                           	TEST	AL,AL
   667 00000632 74 28                           	JE	L98
   668 00000634 FF 05 [00000234]                	INC	DWORD [_argc]
   669 0000063A 89 11                           	MOV	DWORD [ECX],EDX
   670 0000063C 3C 20                           	CMP	AL,32
   671 0000063E 74 10                           	JE	L120
   672 00000640                                 L113:
   673 00000640 8A 02                           	MOV	AL,BYTE [EDX]
   674 00000642 3C 0A                           	CMP	AL,10
   675 00000644 74 13                           	JE	L121
   676 00000646 84 C0                           	TEST	AL,AL
   677 00000648 74 0F                           	JE	L121
   678 0000064A 42                              	INC	EDX
   679 0000064B 80 3A 20                        	CMP	BYTE [EDX],32
   680 0000064E 75 F0                           	JNE	L113
   681 00000650                                 L120:
   682 00000650 43                              	INC	EBX
   683 00000651 83 C1 04                        	ADD	ECX,4
   684 00000654 80 FB 20                        	CMP	BL,32
   685 00000657 7E CC                           	JLE	L114
   686 00000659                                 L121:
   687 00000659 C6 02 00                        	MOV	BYTE [EDX],0
   688 0000065C                                 L98:
   689 0000065C 5B                              	POP	EBX
   690 0000065D 5D                              	POP	EBP
   691 0000065E C3                              	RET
   692 0000065F                                 L105:
   693 0000065F C6 02 00                        	MOV	BYTE [EDX],0
   694 00000662 42                              	INC	EDX
   695 00000663 80 3A 20                        	CMP	BYTE [EDX],32
   696 00000666 74 F7                           	JE	L105
   697 00000668 EB C0                           	JMP	L118
   698 0000066A                                 _str_cmp:
   699 0000066A 55                              	PUSH	EBP
   700 0000066B 89 E5                           	MOV	EBP,ESP
   701 0000066D 53                              	PUSH	EBX
   702 0000066E B3 01                           	MOV	BL,1
   703 00000670 8B 55 0C                        	MOV	EDX,DWORD [12+EBP]
   704 00000673 8B 4D 08                        	MOV	ECX,DWORD [8+EBP]
   705 00000676 80 3A 00                        	CMP	BYTE [EDX],0
   706 00000679 74 0F                           	JE	L130
   707 0000067B                                 L127:
   708 0000067B 8A 02                           	MOV	AL,BYTE [EDX]
   709 0000067D 38 01                           	CMP	BYTE [ECX],AL
   710 0000067F 74 02                           	JE	L126
   711 00000681 31 DB                           	XOR	EBX,EBX
   712 00000683                                 L126:
   713 00000683 42                              	INC	EDX
   714 00000684 41                              	INC	ECX
   715 00000685 80 3A 00                        	CMP	BYTE [EDX],0
   716 00000688 75 F1                           	JNE	L127
   717 0000068A                                 L130:
   718 0000068A 80 39 00                        	CMP	BYTE [ECX],0
   719 0000068D 74 02                           	JE	L128
   720 0000068F 31 DB                           	XOR	EBX,EBX
   721 00000691                                 L128:
   722 00000691 0F BE C3                        	MOVSX	EAX,BL
   723 00000694 5B                              	POP	EBX
   724 00000695 5D                              	POP	EBP
   725 00000696 C3                              	RET
   726 00000697                                 _str_uppercase:
   727 00000697 55                              	PUSH	EBP
   728 00000698 31 C9                           	XOR	ECX,ECX
   729 0000069A 89 E5                           	MOV	EBP,ESP
   730 0000069C 53                              	PUSH	EBX
   731 0000069D 8B 5D 08                        	MOV	EBX,DWORD [8+EBP]
   732 000006A0 80 3B 00                        	CMP	BYTE [EBX],0
   733 000006A3 74 17                           	JE	L138
   734 000006A5                                 L136:
   735 000006A5 8A 14 19                        	MOV	DL,BYTE [ECX+EBX*1]
   736 000006A8 8D 42 9F                        	LEA	EAX,DWORD [-97+EDX]
   737 000006AB 3C 19                           	CMP	AL,25
   738 000006AD 77 06                           	JA	L135
   739 000006AF 8D 42 E0                        	LEA	EAX,DWORD [-32+EDX]
   740 000006B2 88 04 19                        	MOV	BYTE [ECX+EBX*1],AL
   741 000006B5                                 L135:
   742 000006B5 41                              	INC	ECX
   743 000006B6 80 3C 19 00                     	CMP	BYTE [ECX+EBX*1],0
   744 000006BA 75 E9                           	JNE	L136
   745 000006BC                                 L138:
   746 000006BC 5B                              	POP	EBX
   747 000006BD 5D                              	POP	EBP
   748 000006BE C3                              	RET
   749 000006BF                                 _restore:
   750 000006BF 55                              	PUSH	EBP
   751 000006C0 31 C0                           	XOR	EAX,EAX
   752 000006C2 89 E5                           	MOV	EBP,ESP
   753 000006C4 C7 05 [00000308] 00000000       	MOV	DWORD [_index],0
   754 000006CE C7 05 [00000234] 00000000       	MOV	DWORD [_argc],0
   755 000006D8                                 L144:
   756 000006D8 C7 04 85 [000001B0] 00000000    	MOV	DWORD [_arg_buf+EAX*4],0
   757 000006E3 40                              	INC	EAX
   758 000006E4 83 F8 20                        	CMP	EAX,32
   759 000006E7 7E EF                           	JLE	L144
   760 000006E9 31 C0                           	XOR	EAX,EAX
   761 000006EB                                 L149:
   762 000006EB C6 80 [00000240] 00             	MOV	BYTE [_cmd_buf+EAX],0
   763 000006F2 40                              	INC	EAX
   764 000006F3 3D 000000C7                     	CMP	EAX,199
   765 000006F8 7E F1                           	JLE	L149
   766 000006FA 5D                              	POP	EBP
   767 000006FB C3                              	RET
   768                                          [SECTION .data]
   769 0000017E                                 LC20:
   770 0000017E 43 6F 6D 6D 61 6E 64 20 4E 6F   	DB	"Command Not Found",0x00
       00000188 74 20 46 6F 75 6E 64 00 
   771                                          [SECTION .text]
   772 000006FC                                 _run_cmd:
   773 000006FC 55                              	PUSH	EBP
   774 000006FD 89 E5                           	MOV	EBP,ESP
   775 000006FF 56                              	PUSH	ESI
   776 00000700 53                              	PUSH	EBX
   777 00000701 8B 35 [000001B0]                	MOV	ESI,DWORD [_arg_buf]
   778 00000707 56                              	PUSH	ESI
   779 00000708 E8 FFFFFF8A                     	CALL	_str_uppercase
   780 0000070D 5B                              	POP	EBX
   781 0000070E 83 3D [00000234] 00             	CMP	DWORD [_argc],0
   782 00000715 74 25                           	JE	L154
   783 00000717 31 DB                           	XOR	EBX,EBX
   784 00000719                                 L161:
   785 00000719 FF 34 9D [0000012E]             	PUSH	DWORD [_buildin_cmd+EBX*4]
   786 00000720 56                              	PUSH	ESI
   787 00000721 E8 FFFFFF44                     	CALL	_str_cmp
   788 00000726 5A                              	POP	EDX
   789 00000727 59                              	POP	ECX
   790 00000728 84 C0                           	TEST	AL,AL
   791 0000072A 75 17                           	JNE	L164
   792 0000072C 43                              	INC	EBX
   793 0000072D 83 FB 09                        	CMP	EBX,9
   794 00000730 7E E7                           	JLE	L161
   795 00000732 68 [0000017E]                   	PUSH	LC20
   796 00000737 E8 FFFFFEAE                     	CALL	_print_string
   797 0000073C                                 L154:
   798 0000073C 8D 65 F8                        	LEA	ESP,DWORD [-8+EBP]
   799 0000073F 5B                              	POP	EBX
   800 00000740 5E                              	POP	ESI
   801 00000741 5D                              	POP	EBP
   802 00000742 C3                              	RET
   803 00000743                                 L164:
   804 00000743 FF 14 9D [00000156]             	CALL	DWORD [_buildin_cmd_addr+EBX*4]
   805 0000074A EB F0                           	JMP	L154
   806                                          [SECTION .data]
   807 00000190                                 LC21:
   808 00000190 43 6F 6D 6D 61 6E 64 00         	DB	"Command",0x00
   809                                          [SECTION .text]
   810 0000074C                                 	GLOBAL	_task_console_main
   811 0000074C                                 _task_console_main:
   812 0000074C 55                              	PUSH	EBP
   813 0000074D 89 E5                           	MOV	EBP,ESP
   814 0000074F 53                              	PUSH	EBX
   815 00000750 C7 05 [00000198] 00000196       	MOV	DWORD [_width],406
   816 0000075A C7 05 [0000019C] 00000159       	MOV	DWORD [_height],345
   817 00000764 C7 05 [000001A0] 00000032       	MOV	DWORD [_cols],50
   818 0000076E C7 05 [000001A4] 00000014       	MOV	DWORD [_rows],20
   819 00000778 E8 [00000000]                   	CALL	_sheet_alloc
   820 0000077D A3 [0000030C]                   	MOV	DWORD [_sht_window],EAX
   821 00000782 A1 [0000019C]                   	MOV	EAX,DWORD [_height]
   822 00000787 0F AF 05 [00000198]             	IMUL	EAX,DWORD [_width]
   823 0000078E 50                              	PUSH	EAX
   824 0000078F E8 [00000000]                   	CALL	_mm_malloc
   825 00000794 68 000000FF                     	PUSH	255
   826 00000799 FF 35 [0000019C]                	PUSH	DWORD [_height]
   827 0000079F FF 35 [00000198]                	PUSH	DWORD [_width]
   828 000007A5 50                              	PUSH	EAX
   829 000007A6 A3 [00000310]                   	MOV	DWORD [_buf_window],EAX
   830 000007AB FF 35 [0000030C]                	PUSH	DWORD [_sht_window]
   831 000007B1 E8 [00000000]                   	CALL	_sheet_setbuf
   832 000007B6 6A 01                           	PUSH	1
   833 000007B8 68 [00000190]                   	PUSH	LC21
   834 000007BD FF 35 [0000019C]                	PUSH	DWORD [_height]
   835 000007C3 FF 35 [00000198]                	PUSH	DWORD [_width]
   836 000007C9 FF 35 [00000310]                	PUSH	DWORD [_buf_window]
   837 000007CF E8 [00000000]                   	CALL	_make_window
   838 000007D4 8B 15 [00000198]                	MOV	EDX,DWORD [_width]
   839 000007DA 83 C4 2C                        	ADD	ESP,44
   840 000007DD A1 [0000019C]                   	MOV	EAX,DWORD [_height]
   841 000007E2 83 E8 04                        	SUB	EAX,4
   842 000007E5 50                              	PUSH	EAX
   843 000007E6 8D 42 FC                        	LEA	EAX,DWORD [-4+EDX]
   844 000007E9 50                              	PUSH	EAX
   845 000007EA 6A 16                           	PUSH	22
   846 000007EC 6A 03                           	PUSH	3
   847 000007EE 6A 00                           	PUSH	0
   848 000007F0 52                              	PUSH	EDX
   849 000007F1 FF 35 [00000310]                	PUSH	DWORD [_buf_window]
   850 000007F7 E8 [00000000]                   	CALL	_draw_rect
   851 000007FC 6A 01                           	PUSH	1
   852 000007FE FF 35 [0000030C]                	PUSH	DWORD [_sht_window]
   853 00000804 E8 [00000000]                   	CALL	_sheet_updown
   854 00000809 83 C4 24                        	ADD	ESP,36
   855 0000080C 6A 46                           	PUSH	70
   856 0000080E 6A 05                           	PUSH	5
   857 00000810 FF 35 [0000030C]                	PUSH	DWORD [_sht_window]
   858 00000816 E8 [00000000]                   	CALL	_sheet_slide
   859 0000081B 6A 32                           	PUSH	50
   860 0000081D 6A 01                           	PUSH	1
   861 0000081F E8 [00000000]                   	CALL	_start_timing
   862 00000824 E8 FFFFFE96                     	CALL	_restore
   863 00000829 6A 01                           	PUSH	1
   864 0000082B E8 FFFFFB5D                     	CALL	_new_line
   865 00000830 83 C4 18                        	ADD	ESP,24
   866 00000833                                 L184:
   867 00000833 E8 [00000000]                   	CALL	_task_now
   868 00000838 83 C0 10                        	ADD	EAX,16
   869 0000083B 50                              	PUSH	EAX
   870 0000083C E8 [00000000]                   	CALL	_fifo_status
   871 00000841 5B                              	POP	EBX
   872 00000842 85 C0                           	TEST	EAX,EAX
   873 00000844 0F 84 000002F2                  	JE	L188
   874 0000084A E8 [00000000]                   	CALL	_task_now
   875 0000084F 83 C0 10                        	ADD	EAX,16
   876 00000852 50                              	PUSH	EAX
   877 00000853 E8 [00000000]                   	CALL	_fifo_get
   878 00000858 59                              	POP	ECX
   879 00000859 3D 00000201                     	CMP	EAX,513
   880 0000085E 0F 84 0000022E                  	JE	L189
   881 00000864 0F B6 C0                        	MOVZX	EAX,AL
   882 00000867 50                              	PUSH	EAX
   883 00000868 E8 [00000000]                   	CALL	_key_to_char
   884 0000086D 88 C3                           	MOV	BL,AL
   885 0000086F 58                              	POP	EAX
   886 00000870 84 DB                           	TEST	BL,BL
   887 00000872 74 BF                           	JE	L184
   888 00000874 80 FB 0A                        	CMP	BL,10
   889 00000877 0F 84 00000188                  	JE	L190
   890 0000087D 80 FB 08                        	CMP	BL,8
   891 00000880 74 29                           	JE	L191
   892 00000882 81 3D [00000308] 000000C6       	CMP	DWORD [_index],198
   893 0000088C 7F A5                           	JG	L184
   894 0000088E 0F BE C3                        	MOVSX	EAX,BL
   895 00000891 50                              	PUSH	EAX
   896 00000892 E8 FFFFFC51                     	CALL	_new_char
   897 00000897 A1 [00000308]                   	MOV	EAX,DWORD [_index]
   898 0000089C 88 98 [00000240]                	MOV	BYTE [_cmd_buf+EAX],BL
   899 000008A2 40                              	INC	EAX
   900 000008A3 A3 [00000308]                   	MOV	DWORD [_index],EAX
   901 000008A8                                 L185:
   902 000008A8 58                              	POP	EAX
   903 000008A9 EB 88                           	JMP	L184
   904 000008AB                                 L191:
   905 000008AB 83 3D [00000308] 00             	CMP	DWORD [_index],0
   906 000008B2 0F 84 FFFFFF7B                  	JE	L184
   907 000008B8 8B 0D [0000000C]                	MOV	ECX,DWORD [_yc]
   908 000008BE C1 E1 04                        	SAL	ECX,4
   909 000008C1 8D 41 25                        	LEA	EAX,DWORD [37+ECX]
   910 000008C4 83 C1 16                        	ADD	ECX,22
   911 000008C7 50                              	PUSH	EAX
   912 000008C8 A1 [00000008]                   	MOV	EAX,DWORD [_xc]
   913 000008CD C1 E0 03                        	SAL	EAX,3
   914 000008D0 8D 50 0A                        	LEA	EDX,DWORD [10+EAX]
   915 000008D3 83 C0 03                        	ADD	EAX,3
   916 000008D6 52                              	PUSH	EDX
   917 000008D7 51                              	PUSH	ECX
   918 000008D8 50                              	PUSH	EAX
   919 000008D9 6A 00                           	PUSH	0
   920 000008DB FF 35 [00000198]                	PUSH	DWORD [_width]
   921 000008E1 FF 35 [00000310]                	PUSH	DWORD [_buf_window]
   922 000008E7 E8 [00000000]                   	CALL	_draw_rect
   923 000008EC 8B 0D [0000000C]                	MOV	ECX,DWORD [_yc]
   924 000008F2 C1 E1 04                        	SAL	ECX,4
   925 000008F5 6A 00                           	PUSH	0
   926 000008F7 8D 41 26                        	LEA	EAX,DWORD [38+ECX]
   927 000008FA 83 C1 16                        	ADD	ECX,22
   928 000008FD 50                              	PUSH	EAX
   929 000008FE A1 [00000008]                   	MOV	EAX,DWORD [_xc]
   930 00000903 C1 E0 03                        	SAL	EAX,3
   931 00000906 8D 50 0B                        	LEA	EDX,DWORD [11+EAX]
   932 00000909 83 C0 03                        	ADD	EAX,3
   933 0000090C 52                              	PUSH	EDX
   934 0000090D 51                              	PUSH	ECX
   935 0000090E 50                              	PUSH	EAX
   936 0000090F FF 35 [0000030C]                	PUSH	DWORD [_sht_window]
   937 00000915 E8 [00000000]                   	CALL	_sheet_refresh
   938 0000091A 83 C4 34                        	ADD	ESP,52
   939 0000091D A1 [00000000]                   	MOV	EAX,DWORD [_x]
   940 00000922 48                              	DEC	EAX
   941 00000923 A3 [00000000]                   	MOV	DWORD [_x],EAX
   942 00000928 40                              	INC	EAX
   943 00000929 0F 84 000000AB                  	JE	L192
   944 0000092F                                 L178:
   945 0000092F 8B 0D [00000004]                	MOV	ECX,DWORD [_y]
   946 00000935 C1 E1 04                        	SAL	ECX,4
   947 00000938 8D 41 25                        	LEA	EAX,DWORD [37+ECX]
   948 0000093B 83 C1 16                        	ADD	ECX,22
   949 0000093E 50                              	PUSH	EAX
   950 0000093F A1 [00000000]                   	MOV	EAX,DWORD [_x]
   951 00000944 C1 E0 03                        	SAL	EAX,3
   952 00000947 8D 50 0A                        	LEA	EDX,DWORD [10+EAX]
   953 0000094A 83 C0 03                        	ADD	EAX,3
   954 0000094D 52                              	PUSH	EDX
   955 0000094E 51                              	PUSH	ECX
   956 0000094F 50                              	PUSH	EAX
   957 00000950 6A 00                           	PUSH	0
   958 00000952 FF 35 [00000198]                	PUSH	DWORD [_width]
   959 00000958 FF 35 [00000310]                	PUSH	DWORD [_buf_window]
   960 0000095E E8 [00000000]                   	CALL	_draw_rect
   961 00000963 8B 0D [00000004]                	MOV	ECX,DWORD [_y]
   962 00000969 C1 E1 04                        	SAL	ECX,4
   963 0000096C 6A 00                           	PUSH	0
   964 0000096E 8D 41 26                        	LEA	EAX,DWORD [38+ECX]
   965 00000971 83 C1 16                        	ADD	ECX,22
   966 00000974 50                              	PUSH	EAX
   967 00000975 A1 [00000000]                   	MOV	EAX,DWORD [_x]
   968 0000097A C1 E0 03                        	SAL	EAX,3
   969 0000097D 8D 50 0B                        	LEA	EDX,DWORD [11+EAX]
   970 00000980 83 C0 03                        	ADD	EAX,3
   971 00000983 52                              	PUSH	EDX
   972 00000984 51                              	PUSH	ECX
   973 00000985 50                              	PUSH	EAX
   974 00000986 FF 35 [0000030C]                	PUSH	DWORD [_sht_window]
   975 0000098C E8 [00000000]                   	CALL	_sheet_refresh
   976 00000991 A1 [00000008]                   	MOV	EAX,DWORD [_xc]
   977 00000996 83 C4 34                        	ADD	ESP,52
   978 00000999 85 C0                           	TEST	EAX,EAX
   979 0000099B 75 13                           	JNE	L187
   980 0000099D A1 [0000000C]                   	MOV	EAX,DWORD [_yc]
   981 000009A2 48                              	DEC	EAX
   982 000009A3 A3 [0000000C]                   	MOV	DWORD [_yc],EAX
   983 000009A8 40                              	INC	EAX
   984 000009A9 74 22                           	JE	L193
   985 000009AB                                 L182:
   986 000009AB A1 [000001A0]                   	MOV	EAX,DWORD [_cols]
   987 000009B0                                 L187:
   988 000009B0 48                              	DEC	EAX
   989 000009B1 A3 [00000008]                   	MOV	DWORD [_xc],EAX
   990 000009B6 A1 [00000308]                   	MOV	EAX,DWORD [_index]
   991 000009BB 48                              	DEC	EAX
   992 000009BC A3 [00000308]                   	MOV	DWORD [_index],EAX
   993 000009C1 C6 80 [00000240] 00             	MOV	BYTE [_cmd_buf+EAX],0
   994 000009C8 E9 FFFFFE66                     	JMP	L184
   995 000009CD                                 L193:
   996 000009CD A1 [000001A4]                   	MOV	EAX,DWORD [_rows]
   997 000009D2 48                              	DEC	EAX
   998 000009D3 A3 [0000000C]                   	MOV	DWORD [_yc],EAX
   999 000009D8 EB D1                           	JMP	L182
  1000 000009DA                                 L192:
  1001 000009DA A1 [00000004]                   	MOV	EAX,DWORD [_y]
  1002 000009DF 48                              	DEC	EAX
  1003 000009E0 A3 [00000004]                   	MOV	DWORD [_y],EAX
  1004 000009E5 40                              	INC	EAX
  1005 000009E6 74 10                           	JE	L194
  1006 000009E8                                 L179:
  1007 000009E8 A1 [000001A0]                   	MOV	EAX,DWORD [_cols]
  1008 000009ED 48                              	DEC	EAX
  1009 000009EE A3 [00000000]                   	MOV	DWORD [_x],EAX
  1010 000009F3 E9 FFFFFF37                     	JMP	L178
  1011 000009F8                                 L194:
  1012 000009F8 A1 [000001A4]                   	MOV	EAX,DWORD [_rows]
  1013 000009FD 48                              	DEC	EAX
  1014 000009FE A3 [00000004]                   	MOV	DWORD [_y],EAX
  1015 00000A03 EB E3                           	JMP	L179
  1016 00000A05                                 L190:
  1017 00000A05 83 3D [00000308] 00             	CMP	DWORD [_index],0
  1018 00000A0C 0F 84 FFFFFE21                  	JE	L184
  1019 00000A12 8B 0D [0000000C]                	MOV	ECX,DWORD [_yc]
  1020 00000A18 C1 E1 04                        	SAL	ECX,4
  1021 00000A1B 8D 41 25                        	LEA	EAX,DWORD [37+ECX]
  1022 00000A1E 83 C1 16                        	ADD	ECX,22
  1023 00000A21 50                              	PUSH	EAX
  1024 00000A22 A1 [00000008]                   	MOV	EAX,DWORD [_xc]
  1025 00000A27 C1 E0 03                        	SAL	EAX,3
  1026 00000A2A 8D 50 0A                        	LEA	EDX,DWORD [10+EAX]
  1027 00000A2D 83 C0 03                        	ADD	EAX,3
  1028 00000A30 52                              	PUSH	EDX
  1029 00000A31 51                              	PUSH	ECX
  1030 00000A32 50                              	PUSH	EAX
  1031 00000A33 6A 00                           	PUSH	0
  1032 00000A35 FF 35 [00000198]                	PUSH	DWORD [_width]
  1033 00000A3B FF 35 [00000310]                	PUSH	DWORD [_buf_window]
  1034 00000A41 E8 [00000000]                   	CALL	_draw_rect
  1035 00000A46 8B 0D [0000000C]                	MOV	ECX,DWORD [_yc]
  1036 00000A4C C1 E1 04                        	SAL	ECX,4
  1037 00000A4F 6A 00                           	PUSH	0
  1038 00000A51 8D 41 26                        	LEA	EAX,DWORD [38+ECX]
  1039 00000A54 83 C1 16                        	ADD	ECX,22
  1040 00000A57 50                              	PUSH	EAX
  1041 00000A58 A1 [00000008]                   	MOV	EAX,DWORD [_xc]
  1042 00000A5D C1 E0 03                        	SAL	EAX,3
  1043 00000A60 8D 50 0B                        	LEA	EDX,DWORD [11+EAX]
  1044 00000A63 83 C0 03                        	ADD	EAX,3
  1045 00000A66 52                              	PUSH	EDX
  1046 00000A67 51                              	PUSH	ECX
  1047 00000A68 50                              	PUSH	EAX
  1048 00000A69 FF 35 [0000030C]                	PUSH	DWORD [_sht_window]
  1049 00000A6F E8 [00000000]                   	CALL	_sheet_refresh
  1050 00000A74 83 C4 34                        	ADD	ESP,52
  1051 00000A77 E8 FFFFFB99                     	CALL	_parse_cmd
  1052 00000A7C E8 FFFFFC7B                     	CALL	_run_cmd
  1053 00000A81 E8 FFFFFC39                     	CALL	_restore
  1054 00000A86 6A 01                           	PUSH	1
  1055 00000A88 E8 FFFFF900                     	CALL	_new_line
  1056 00000A8D E9 FFFFFE16                     	JMP	L185
  1057 00000A92                                 L189:
  1058 00000A92 6A 32                           	PUSH	50
  1059 00000A94 6A 01                           	PUSH	1
  1060 00000A96 E8 [00000000]                   	CALL	_start_timing
  1061 00000A9B 58                              	POP	EAX
  1062 00000A9C 5A                              	POP	EDX
  1063 00000A9D 83 3D [00000010] 00             	CMP	DWORD [_show_cursor],0
  1064 00000AA4 74 71                           	JE	L171
  1065 00000AA6 8B 0D [0000000C]                	MOV	ECX,DWORD [_yc]
  1066 00000AAC C1 E1 04                        	SAL	ECX,4
  1067 00000AAF 8D 41 25                        	LEA	EAX,DWORD [37+ECX]
  1068 00000AB2 83 C1 16                        	ADD	ECX,22
  1069 00000AB5 50                              	PUSH	EAX
  1070 00000AB6 A1 [00000008]                   	MOV	EAX,DWORD [_xc]
  1071 00000ABB C1 E0 03                        	SAL	EAX,3
  1072 00000ABE 8D 50 0A                        	LEA	EDX,DWORD [10+EAX]
  1073 00000AC1 83 C0 03                        	ADD	EAX,3
  1074 00000AC4 52                              	PUSH	EDX
  1075 00000AC5 51                              	PUSH	ECX
  1076 00000AC6 50                              	PUSH	EAX
  1077 00000AC7 6A 03                           	PUSH	3
  1078 00000AC9                                 L186:
  1079 00000AC9 FF 35 [00000198]                	PUSH	DWORD [_width]
  1080 00000ACF FF 35 [00000310]                	PUSH	DWORD [_buf_window]
  1081 00000AD5 E8 [00000000]                   	CALL	_draw_rect
  1082 00000ADA 8B 0D [0000000C]                	MOV	ECX,DWORD [_yc]
  1083 00000AE0 C1 E1 04                        	SAL	ECX,4
  1084 00000AE3 6A 00                           	PUSH	0
  1085 00000AE5 8D 41 26                        	LEA	EAX,DWORD [38+ECX]
  1086 00000AE8 83 C1 16                        	ADD	ECX,22
  1087 00000AEB 50                              	PUSH	EAX
  1088 00000AEC A1 [00000008]                   	MOV	EAX,DWORD [_xc]
  1089 00000AF1 C1 E0 03                        	SAL	EAX,3
  1090 00000AF4 8D 50 0B                        	LEA	EDX,DWORD [11+EAX]
  1091 00000AF7 83 C0 03                        	ADD	EAX,3
  1092 00000AFA 52                              	PUSH	EDX
  1093 00000AFB 51                              	PUSH	ECX
  1094 00000AFC 50                              	PUSH	EAX
  1095 00000AFD FF 35 [0000030C]                	PUSH	DWORD [_sht_window]
  1096 00000B03 E8 [00000000]                   	CALL	_sheet_refresh
  1097 00000B08 83 C4 34                        	ADD	ESP,52
  1098 00000B0B 83 35 [00000010] 01             	XOR	DWORD [_show_cursor],1
  1099 00000B12 E9 FFFFFD1C                     	JMP	L184
  1100 00000B17                                 L171:
  1101 00000B17 8B 0D [0000000C]                	MOV	ECX,DWORD [_yc]
  1102 00000B1D C1 E1 04                        	SAL	ECX,4
  1103 00000B20 8D 41 25                        	LEA	EAX,DWORD [37+ECX]
  1104 00000B23 83 C1 16                        	ADD	ECX,22
  1105 00000B26 50                              	PUSH	EAX
  1106 00000B27 A1 [00000008]                   	MOV	EAX,DWORD [_xc]
  1107 00000B2C C1 E0 03                        	SAL	EAX,3
  1108 00000B2F 8D 50 0A                        	LEA	EDX,DWORD [10+EAX]
  1109 00000B32 83 C0 03                        	ADD	EAX,3
  1110 00000B35 52                              	PUSH	EDX
  1111 00000B36 51                              	PUSH	ECX
  1112 00000B37 50                              	PUSH	EAX
  1113 00000B38 6A 00                           	PUSH	0
  1114 00000B3A EB 8D                           	JMP	L186
  1115 00000B3C                                 L188:
  1116 00000B3C E8 [00000000]                   	CALL	_task_now
  1117 00000B41 50                              	PUSH	EAX
  1118 00000B42 E8 [00000000]                   	CALL	_task_sleep
  1119 00000B47 E9 FFFFFD5C                     	JMP	L185
  1120                                          [SECTION .data]
  1121 00000198                                 	ALIGNB	4
  1122 00000198                                 _width:
  1123 00000198 00 00 00 00                     	RESB	4
  1124                                          [SECTION .data]
  1125 0000019C                                 	ALIGNB	4
  1126 0000019C                                 _height:
  1127 0000019C 00 00 00 00                     	RESB	4
  1128                                          [SECTION .data]
  1129 000001A0                                 	ALIGNB	4
  1130 000001A0                                 _cols:
  1131 000001A0 00 00 00 00                     	RESB	4
  1132                                          [SECTION .data]
  1133 000001A4                                 	ALIGNB	4
  1134 000001A4                                 _rows:
  1135 000001A4 00 00 00 00                     	RESB	4
  1136                                          [SECTION .data]
  1137 000001A8 00 00 00 00 00 00 00 00         	ALIGNB	16
  1138 000001B0                                 _arg_buf:
  1139 000001B0 00 00 00 00 00 00 00 00 00 00   	RESB	132
       000001BA 00 00 00 00 00 00 00 00 00 00 
       000001C4 00 00 00 00 00 00 00 00 00 00 
       000001CE 00 00 00 00 00 00 00 00 00 00 
       000001D8 00 00 00 00 00 00 00 00 00 00 
       000001E2 00 00 00 00 00 00 00 00 00 00 
       000001EC 00 00 00 00 00 00 00 00 00 00 
       000001F6 00 00 00 00 00 00 00 00 00 00 
       00000200 00 00 00 00 00 00 00 00 00 00 
       0000020A 00 00 00 00 00 00 00 00 00 00 
       00000214 00 00 00 00 00 00 00 00 00 00 
       0000021E 00 00 00 00 00 00 00 00 00 00 
       00000228 00 00 00 00 00 00 00 00 00 00 
       00000232 00 00 
  1140                                          [SECTION .data]
  1141 00000234                                 	ALIGNB	4
  1142 00000234                                 _argc:
  1143 00000234 00 00 00 00                     	RESB	4
  1144                                          [SECTION .data]
  1145 00000238 00 00 00 00 00 00 00 00         	ALIGNB	16
  1146 00000240                                 _cmd_buf:
  1147 00000240 00 00 00 00 00 00 00 00 00 00   	RESB	200
       0000024A 00 00 00 00 00 00 00 00 00 00 
       00000254 00 00 00 00 00 00 00 00 00 00 
       0000025E 00 00 00 00 00 00 00 00 00 00 
       00000268 00 00 00 00 00 00 00 00 00 00 
       00000272 00 00 00 00 00 00 00 00 00 00 
       0000027C 00 00 00 00 00 00 00 00 00 00 
       00000286 00 00 00 00 00 00 00 00 00 00 
       00000290 00 00 00 00 00 00 00 00 00 00 
       0000029A 00 00 00 00 00 00 00 00 00 00 
       000002A4 00 00 00 00 00 00 00 00 00 00 
       000002AE 00 00 00 00 00 00 00 00 00 00 
       000002B8 00 00 00 00 00 00 00 00 00 00 
       000002C2 00 00 00 00 00 00 00 00 00 00 
       000002CC 00 00 00 00 00 00 00 00 00 00 
       000002D6 00 00 00 00 00 00 00 00 00 00 
       000002E0 00 00 00 00 00 00 00 00 00 00 
       000002EA 00 00 00 00 00 00 00 00 00 00 
       000002F4 00 00 00 00 00 00 00 00 00 00 
       000002FE 00 00 00 00 00 00 00 00 00 00 
  1148                                          [SECTION .data]
  1149 00000308                                 	ALIGNB	4
  1150 00000308                                 _index:
  1151 00000308 00 00 00 00                     	RESB	4
  1152                                          [SECTION .data]
  1153 0000030C                                 	ALIGNB	4
  1154 0000030C                                 _sht_window:
  1155 0000030C 00 00 00 00                     	RESB	4
  1156                                          [SECTION .data]
  1157 00000310                                 	ALIGNB	4
  1158 00000310                                 _buf_window:
  1159 00000310 00 00 00 00                     	RESB	4
